; ModuleID = 'test.cpp'
source_filename = "test.cpp"
target datalayout = "e-m:w-p270:32:32-p271:32:32-p272:64:64-i64:64-i128:128-f80:128-n8:16:32:64-S128"
target triple = "x86_64-pc-windows-msvc19.40.33813"

%"class.std::basic_ostream" = type { ptr, [4 x i8], i32, %"class.std::basic_ios" }
%"class.std::basic_ios" = type { %"class.std::ios_base", ptr, ptr, i8 }
%"class.std::ios_base" = type { ptr, i64, i32, i32, i32, i64, i64, ptr, ptr, ptr }
%rtti.TypeDescriptor26 = type { ptr, ptr, [27 x i8] }
%eh.CatchableType = type { i32, i32, i32, i32, i32, i32, i32 }
%rtti.TypeDescriptor22 = type { ptr, ptr, [23 x i8] }
%rtti.TypeDescriptor23 = type { ptr, ptr, [24 x i8] }
%rtti.TypeDescriptor19 = type { ptr, ptr, [20 x i8] }
%eh.CatchableTypeArray.5 = type { i32, [5 x i32] }
%eh.ThrowInfo = type { i32, i32, i32, i32 }
%"union.std::error_category::_Addr_storage" = type { i64 }
%rtti.CompleteObjectLocator = type { i32, i32, i32, i32, i32, i32 }
%rtti.TypeDescriptor35 = type { ptr, ptr, [36 x i8] }
%rtti.ClassHierarchyDescriptor = type { i32, i32, i32, i32 }
%rtti.BaseClassDescriptor = type { i32, i32, i32, i32, i32, i32, i32 }
%rtti.TypeDescriptor24 = type { ptr, ptr, [25 x i8] }
%"struct.std::_Fake_allocator" = type { i8 }
%rtti.TypeDescriptor30 = type { ptr, ptr, [31 x i8] }
%eh.CatchableTypeArray.3 = type { i32, [3 x i32] }
%"class.std::locale::id" = type { i64 }
%rtti.TypeDescriptor20 = type { ptr, ptr, [21 x i8] }
%rtti.TypeDescriptor21 = type { ptr, ptr, [22 x i8] }
%rtti.TypeDescriptor25 = type { ptr, ptr, [26 x i8] }
%rtti.TypeDescriptor18 = type { ptr, ptr, [19 x i8] }
%eh.CatchableTypeArray.2 = type { i32, [2 x i32] }
%"class.std::basic_ostream<char>::sentry" = type { %"class.std::basic_ostream<char>::_Sentry_base", i8 }
%"class.std::basic_ostream<char>::_Sentry_base" = type { ptr }
%"class.std::basic_streambuf" = type { ptr, ptr, ptr, ptr, ptr, ptr, ptr, ptr, ptr, i32, i32, ptr, ptr, ptr }
%"class.std::ios_base::failure" = type { %"class.std::system_error" }
%"class.std::system_error" = type { %"class.std::_System_error" }
%"class.std::_System_error" = type { %"class.std::runtime_error", %"class.std::error_code" }
%"class.std::runtime_error" = type { %"class.std::exception" }
%"class.std::exception" = type { ptr, %struct.__std_exception_data }
%struct.__std_exception_data = type { ptr, i8 }
%"class.std::error_code" = type { i32, ptr }
%"class.std::basic_string" = type { %"class.std::_Compressed_pair" }
%"class.std::_Compressed_pair" = type { %"class.std::_String_val" }
%"class.std::_String_val" = type { %"union.std::_String_val<std::_Simple_types<char>>::_Bxty", i64, i64 }
%"union.std::_String_val<std::_Simple_types<char>>::_Bxty" = type { ptr, [8 x i8] }
%"class.std::error_condition" = type { i32, ptr }
%"struct.std::_Zero_then_variadic_args_t" = type { i8 }
%"struct.std::_Fake_proxy_ptr_impl" = type { i8 }
%"class.std::bad_array_new_length" = type { %"class.std::bad_alloc" }
%"class.std::bad_alloc" = type { %"class.std::exception" }
%"class.std::error_category" = type { ptr, %"union.std::error_category::_Addr_storage" }
%"class.std::allocator" = type { i8 }
%"struct.std::_One_then_variadic_args_t" = type { i8 }
%class.anon = type { i8 }
%"class.std::locale" = type { [8 x i8], ptr }
%"class.std::_Lockit" = type { i32 }
%"class.std::unique_ptr" = type { %"class.std::_Compressed_pair.0" }
%"class.std::_Compressed_pair.0" = type { ptr }
%"class.std::locale::_Locimp" = type { %"class.std::locale::facet", ptr, i64, i32, i8, %"class.std::_Yarn" }
%"class.std::locale::facet" = type { %"class.std::_Facet_base", i32 }
%"class.std::_Facet_base" = type { ptr }
%"class.std::_Yarn" = type { ptr, i8 }
%"class.std::_Locinfo" = type { %"class.std::_Lockit", %"class.std::_Yarn", %"class.std::_Yarn", %"class.std::_Yarn.1", %"class.std::_Yarn.1", %"class.std::_Yarn", %"class.std::_Yarn" }
%"class.std::_Yarn.1" = type { ptr, i16 }
%"class.std::bad_cast" = type { %"class.std::exception" }
%"class.std::ctype" = type { %"struct.std::ctype_base", %struct._Ctypevec }
%"struct.std::ctype_base" = type { %"class.std::locale::facet" }
%struct._Ctypevec = type { i32, ptr, i32, ptr }

$"??$?6U?$char_traits@D@std@@@std@@YAAEAV?$basic_ostream@DU?$char_traits@D@std@@@0@AEAV10@PEBD@Z" = comdat any

$"??6?$basic_ostream@DU?$char_traits@D@std@@@std@@QEAAAEAV01@P6AAEAV01@AEAV01@@Z@Z" = comdat any

$"??$endl@DU?$char_traits@D@std@@@std@@YAAEAV?$basic_ostream@DU?$char_traits@D@std@@@0@AEAV10@@Z" = comdat any

$"?length@?$_Narrow_char_traits@DH@std@@SA_KQEBD@Z" = comdat any

$"?width@ios_base@std@@QEBA_JXZ" = comdat any

$"??0sentry@?$basic_ostream@DU?$char_traits@D@std@@@std@@QEAA@AEAV12@@Z" = comdat any

$"??Bsentry@?$basic_ostream@DU?$char_traits@D@std@@@std@@QEBA_NXZ" = comdat any

$"?flags@ios_base@std@@QEBAHXZ" = comdat any

$"?eq_int_type@?$_Narrow_char_traits@DH@std@@SA_NHH@Z" = comdat any

$"?rdbuf@?$basic_ios@DU?$char_traits@D@std@@@std@@QEBAPEAV?$basic_streambuf@DU?$char_traits@D@std@@@2@XZ" = comdat any

$"?sputc@?$basic_streambuf@DU?$char_traits@D@std@@@std@@QEAAHD@Z" = comdat any

$"?fill@?$basic_ios@DU?$char_traits@D@std@@@std@@QEBADXZ" = comdat any

$"?eof@?$_Narrow_char_traits@DH@std@@SAHXZ" = comdat any

$"?sputn@?$basic_streambuf@DU?$char_traits@D@std@@@std@@QEAA_JPEBD_J@Z" = comdat any

$"?width@ios_base@std@@QEAA_J_J@Z" = comdat any

$"?setstate@?$basic_ios@DU?$char_traits@D@std@@@std@@QEAAXH_N@Z" = comdat any

$"??1sentry@?$basic_ostream@DU?$char_traits@D@std@@@std@@QEAA@XZ" = comdat any

$"??0_Sentry_base@?$basic_ostream@DU?$char_traits@D@std@@@std@@QEAA@AEAV12@@Z" = comdat any

$"?good@ios_base@std@@QEBA_NXZ" = comdat any

$"?tie@?$basic_ios@DU?$char_traits@D@std@@@std@@QEBAPEAV?$basic_ostream@DU?$char_traits@D@std@@@2@XZ" = comdat any

$"?flush@?$basic_ostream@DU?$char_traits@D@std@@@std@@QEAAAEAV12@XZ" = comdat any

$"??1_Sentry_base@?$basic_ostream@DU?$char_traits@D@std@@@std@@QEAA@XZ" = comdat any

$"?rdstate@ios_base@std@@QEBAHXZ" = comdat any

$"?pubsync@?$basic_streambuf@DU?$char_traits@D@std@@@std@@QEAAHXZ" = comdat any

$"?_Pnavail@?$basic_streambuf@DU?$char_traits@D@std@@@std@@IEBA_JXZ" = comdat any

$"?to_int_type@?$_Narrow_char_traits@DH@std@@SAHD@Z" = comdat any

$"?_Pninc@?$basic_streambuf@DU?$char_traits@D@std@@@std@@IEAAPEADXZ" = comdat any

$"?clear@?$basic_ios@DU?$char_traits@D@std@@@std@@QEAAXH_N@Z" = comdat any

$"?clear@ios_base@std@@QEAAXH_N@Z" = comdat any

$"?make_error_code@std@@YA?AVerror_code@1@W4io_errc@1@@Z" = comdat any

$"??0failure@ios_base@std@@QEAA@PEBDAEBVerror_code@2@@Z" = comdat any

$"??0failure@ios_base@std@@QEAA@AEBV012@@Z" = comdat any

$"??0system_error@std@@QEAA@AEBV01@@Z" = comdat any

$"??0_System_error@std@@QEAA@AEBV01@@Z" = comdat any

$"??0runtime_error@std@@QEAA@AEBV01@@Z" = comdat any

$"??0exception@std@@QEAA@AEBV01@@Z" = comdat any

$"??1failure@ios_base@std@@UEAA@XZ" = comdat any

$"?iostream_category@std@@YAAEBVerror_category@1@XZ" = comdat any

$"??0error_code@std@@QEAA@HAEBVerror_category@1@@Z" = comdat any

$"??$_Immortalize_memcpy_image@V_Iostream_error_category2@std@@@std@@YAAEBV_Iostream_error_category2@0@XZ" = comdat any

$"??1_Iostream_error_category2@std@@UEAA@XZ" = comdat any

$"??_G_Iostream_error_category2@std@@UEAAPEAXI@Z" = comdat any

$"?name@_Iostream_error_category2@std@@UEBAPEBDXZ" = comdat any

$"?message@_Iostream_error_category2@std@@UEBA?AV?$basic_string@DU?$char_traits@D@std@@V?$allocator@D@2@@2@H@Z" = comdat any

$"?default_error_condition@error_category@std@@UEBA?AVerror_condition@2@H@Z" = comdat any

$"?equivalent@error_category@std@@UEBA_NAEBVerror_code@2@H@Z" = comdat any

$"?equivalent@error_category@std@@UEBA_NHAEBVerror_condition@2@@Z" = comdat any

$"??1error_category@std@@UEAA@XZ" = comdat any

$"??0?$basic_string@DU?$char_traits@D@std@@V?$allocator@D@2@@std@@QEAA@QEBD_K@Z" = comdat any

$"??0?$basic_string@DU?$char_traits@D@std@@V?$allocator@D@2@@std@@QEAA@QEBD@Z" = comdat any

$"??$?0$$V@?$_Compressed_pair@V?$allocator@D@std@@V?$_String_val@U?$_Simple_types@D@std@@@2@$00@std@@QEAA@U_Zero_then_variadic_args_t@1@@Z" = comdat any

$"??$_Construct@$00PEBD@?$basic_string@DU?$char_traits@D@std@@V?$allocator@D@2@@std@@AEAAXQEBD_K@Z" = comdat any

$"??1?$_Compressed_pair@V?$allocator@D@std@@V?$_String_val@U?$_Simple_types@D@std@@@2@$00@std@@QEAA@XZ" = comdat any

$"??0?$allocator@D@std@@QEAA@XZ" = comdat any

$"??0?$_String_val@U?$_Simple_types@D@std@@@std@@QEAA@XZ" = comdat any

$"??0_Bxty@?$_String_val@U?$_Simple_types@D@std@@@std@@QEAA@XZ" = comdat any

$"?max_size@?$basic_string@DU?$char_traits@D@std@@V?$allocator@D@2@@std@@QEBA_KXZ" = comdat any

$"?_Xlen_string@std@@YAXXZ" = comdat any

$"?_Getal@?$basic_string@DU?$char_traits@D@std@@V?$allocator@D@2@@std@@AEAAAEAV?$allocator@D@2@XZ" = comdat any

$"??0_Fake_proxy_ptr_impl@std@@QEAA@AEBU_Fake_allocator@1@AEBU_Container_base0@1@@Z" = comdat any

$"?copy@?$_Char_traits@DH@std@@SAPEADQEADQEBD_K@Z" = comdat any

$"?assign@?$_Narrow_char_traits@DH@std@@SAXAEADAEBD@Z" = comdat any

$"?_Release@_Fake_proxy_ptr_impl@std@@QEAAXXZ" = comdat any

$"?_Calculate_growth@?$basic_string@DU?$char_traits@D@std@@V?$allocator@D@2@@std@@CA_K_K00@Z" = comdat any

$"??$_Allocate_for_capacity@$0A@@?$basic_string@DU?$char_traits@D@std@@V?$allocator@D@2@@std@@CAPEADAEAV?$allocator@D@1@AEA_K@Z" = comdat any

$"??$_Construct_in_place@PEADAEBQEAD@std@@YAXAEAPEADAEBQEAD@Z" = comdat any

$"??$_Unfancy@D@std@@YAPEADPEAD@Z" = comdat any

$"?max_size@?$_Default_allocator_traits@V?$allocator@D@std@@@std@@SA_KAEBV?$allocator@D@2@@Z" = comdat any

$"?_Getal@?$basic_string@DU?$char_traits@D@std@@V?$allocator@D@2@@std@@AEBAAEBV?$allocator@D@2@XZ" = comdat any

$"??$max@_K@std@@YAAEB_KAEB_K0@Z" = comdat any

$"??$min@_K@std@@YAAEB_KAEB_K0@Z" = comdat any

$"?max@?$numeric_limits@_J@std@@SA_JXZ" = comdat any

$"?_Get_first@?$_Compressed_pair@V?$allocator@D@std@@V?$_String_val@U?$_Simple_types@D@std@@@2@$00@std@@QEBAAEBV?$allocator@D@2@XZ" = comdat any

$"?_Get_first@?$_Compressed_pair@V?$allocator@D@std@@V?$_String_val@U?$_Simple_types@D@std@@@2@$00@std@@QEAAAEAV?$allocator@D@2@XZ" = comdat any

$"??$_Allocate_at_least_helper@V?$allocator@D@std@@@std@@YAPEADAEAV?$allocator@D@0@AEA_K@Z" = comdat any

$"?allocate@?$allocator@D@std@@QEAAPEAD_K@Z" = comdat any

$"??$_Allocate@$0BA@U_Default_allocate_traits@std@@@std@@YAPEAX_K@Z" = comdat any

$"??$_Get_size_of_n@$00@std@@YA_K_K@Z" = comdat any

$"??$_Allocate_manually_vector_aligned@U_Default_allocate_traits@std@@@std@@YAPEAX_K@Z" = comdat any

$"?_Allocate@_Default_allocate_traits@std@@SAPEAX_K@Z" = comdat any

$"?_Throw_bad_array_new_length@std@@YAXXZ" = comdat any

$"??0bad_array_new_length@std@@QEAA@XZ" = comdat any

$"??0bad_array_new_length@std@@QEAA@AEBV01@@Z" = comdat any

$"??0bad_alloc@std@@QEAA@AEBV01@@Z" = comdat any

$"??1bad_array_new_length@std@@UEAA@XZ" = comdat any

$"??0bad_alloc@std@@AEAA@QEBD@Z" = comdat any

$"??_Gbad_array_new_length@std@@UEAAPEAXI@Z" = comdat any

$"?what@exception@std@@UEBAPEBDXZ" = comdat any

$"??0exception@std@@QEAA@QEBDH@Z" = comdat any

$"??_Gbad_alloc@std@@UEAAPEAXI@Z" = comdat any

$"??_Gexception@std@@UEAAPEAXI@Z" = comdat any

$"??1exception@std@@UEAA@XZ" = comdat any

$"??1bad_alloc@std@@UEAA@XZ" = comdat any

$"??1?$_String_val@U?$_Simple_types@D@std@@@std@@QEAA@XZ" = comdat any

$"??1_Bxty@?$_String_val@U?$_Simple_types@D@std@@@std@@QEAA@XZ" = comdat any

$"??$_Convert_size@_K_K@std@@YA_K_K@Z" = comdat any

$"??0error_condition@std@@QEAA@HAEBVerror_category@1@@Z" = comdat any

$"??8error_category@std@@QEBA_NAEBV01@@Z" = comdat any

$"?category@error_code@std@@QEBAAEBVerror_category@2@XZ" = comdat any

$"?value@error_code@std@@QEBAHXZ" = comdat any

$"??$_Bit_cast@_KT_Addr_storage@error_category@std@@$0A@@std@@YA_KAEBT_Addr_storage@error_category@0@@Z" = comdat any

$"??8std@@YA_NAEBVerror_condition@0@0@Z" = comdat any

$"?category@error_condition@std@@QEBAAEBVerror_category@2@XZ" = comdat any

$"?value@error_condition@std@@QEBAHXZ" = comdat any

$"??0system_error@std@@QEAA@Verror_code@1@PEBD@Z" = comdat any

$"??_Gfailure@ios_base@std@@UEAAPEAXI@Z" = comdat any

$"??0_System_error@std@@IEAA@Verror_code@1@AEBV?$basic_string@DU?$char_traits@D@std@@V?$allocator@D@2@@1@@Z" = comdat any

$"??1?$basic_string@DU?$char_traits@D@std@@V?$allocator@D@2@@std@@QEAA@XZ" = comdat any

$"??_Gsystem_error@std@@UEAAPEAXI@Z" = comdat any

$"?_Makestr@_System_error@std@@CA?AV?$basic_string@DU?$char_traits@D@std@@V?$allocator@D@2@@2@Verror_code@2@V32@@Z" = comdat any

$"??0?$basic_string@DU?$char_traits@D@std@@V?$allocator@D@2@@std@@QEAA@AEBV01@@Z" = comdat any

$"??0runtime_error@std@@QEAA@AEBV?$basic_string@DU?$char_traits@D@std@@V?$allocator@D@2@@1@@Z" = comdat any

$"??_G_System_error@std@@UEAAPEAXI@Z" = comdat any

$"?empty@?$basic_string@DU?$char_traits@D@std@@V?$allocator@D@2@@std@@QEBA_NXZ" = comdat any

$"?append@?$basic_string@DU?$char_traits@D@std@@V?$allocator@D@2@@std@@QEAAAEAV12@QEBD@Z" = comdat any

$"?append@?$basic_string@DU?$char_traits@D@std@@V?$allocator@D@2@@std@@QEAAAEAV12@AEBV12@@Z" = comdat any

$"?message@error_code@std@@QEBA?AV?$basic_string@DU?$char_traits@D@std@@V?$allocator@D@2@@2@XZ" = comdat any

$"??0?$basic_string@DU?$char_traits@D@std@@V?$allocator@D@2@@std@@QEAA@$$QEAV01@@Z" = comdat any

$"?append@?$basic_string@DU?$char_traits@D@std@@V?$allocator@D@2@@std@@QEAAAEAV12@QEBD_K@Z" = comdat any

$"?_Myptr@?$_String_val@U?$_Simple_types@D@std@@@std@@QEAAPEADXZ" = comdat any

$"?move@?$_Char_traits@DH@std@@SAPEADQEADQEBD_K@Z" = comdat any

$"??$_Reallocate_grow_by@V<lambda_1>@?0??append@?$basic_string@DU?$char_traits@D@std@@V?$allocator@D@2@@std@@QEAAAEAV34@QEBD_K@Z@PEBD_K@?$basic_string@DU?$char_traits@D@std@@V?$allocator@D@2@@std@@AEAAAEAV01@_KV<lambda_1>@?0??append@01@QEAAAEAV01@QEBD0@Z@PEBD_K@Z" = comdat any

$"?_Large_mode_engaged@?$_String_val@U?$_Simple_types@D@std@@@std@@QEBA_NXZ" = comdat any

$"?_Calculate_growth@?$basic_string@DU?$char_traits@D@std@@V?$allocator@D@2@@std@@AEBA_K_K@Z" = comdat any

$"?_Orphan_all@_Container_base0@std@@QEAAXXZ" = comdat any

$"??R<lambda_1>@?0??append@?$basic_string@DU?$char_traits@D@std@@V?$allocator@D@2@@std@@QEAAAEAV23@QEBD_K@Z@SA?A?<auto>@@QEAD0101@Z" = comdat any

$"?_Deallocate_for_capacity@?$basic_string@DU?$char_traits@D@std@@V?$allocator@D@2@@std@@CAXAEAV?$allocator@D@2@QEAD_K@Z" = comdat any

$"?deallocate@?$allocator@D@std@@QEAAXQEAD_K@Z" = comdat any

$"??$_Deallocate@$0BA@@std@@YAXPEAX_K@Z" = comdat any

$"?_Adjust_manually_vector_aligned@std@@YAXAEAPEAXAEA_K@Z" = comdat any

$"?_Myptr@?$_String_val@U?$_Simple_types@D@std@@@std@@QEBAPEBDXZ" = comdat any

$"??$?0V?$allocator@D@std@@$$V@?$_Compressed_pair@V?$allocator@D@std@@V?$_String_val@U?$_Simple_types@D@std@@@2@$00@std@@QEAA@U_One_then_variadic_args_t@1@$$QEAV?$allocator@D@1@@Z" = comdat any

$"?_Alloc_proxy@_Container_base0@std@@QEAAXAEBU_Fake_allocator@2@@Z" = comdat any

$"?_Take_contents@?$basic_string@DU?$char_traits@D@std@@V?$allocator@D@2@@std@@AEAAXAEAV12@@Z" = comdat any

$"?_Activate_SSO_buffer@?$_String_val@U?$_Simple_types@D@std@@@std@@QEAAXXZ" = comdat any

$"?select_on_container_copy_construction@?$_Default_allocator_traits@V?$allocator@D@std@@@std@@SA?AV?$allocator@D@2@AEBV32@@Z" = comdat any

$"??$_Construct@$01PEBD@?$basic_string@DU?$char_traits@D@std@@V?$allocator@D@2@@std@@AEAAXQEBD_K@Z" = comdat any

$"?c_str@?$basic_string@DU?$char_traits@D@std@@V?$allocator@D@2@@std@@QEBAPEBDXZ" = comdat any

$"??0exception@std@@QEAA@QEBD@Z" = comdat any

$"??_Gruntime_error@std@@UEAAPEAXI@Z" = comdat any

$"??1runtime_error@std@@UEAA@XZ" = comdat any

$"??1_System_error@std@@UEAA@XZ" = comdat any

$"?_Tidy_deallocate@?$basic_string@DU?$char_traits@D@std@@V?$allocator@D@2@@std@@AEAAXXZ" = comdat any

$"?_Switch_to_buf@_Bxty@?$_String_val@U?$_Simple_types@D@std@@@std@@QEAAXXZ" = comdat any

$"??$_Destroy_in_place@PEAD@std@@YAXAEAPEAD@Z" = comdat any

$"??1system_error@std@@UEAA@XZ" = comdat any

$"?_Osfx@?$basic_ostream@DU?$char_traits@D@std@@@std@@QEAAXXZ" = comdat any

$"?put@?$basic_ostream@DU?$char_traits@D@std@@@std@@QEAAAEAV12@D@Z" = comdat any

$"?widen@?$basic_ios@DU?$char_traits@D@std@@@std@@QEBADD@Z" = comdat any

$"??$use_facet@V?$ctype@D@std@@@std@@YAAEBV?$ctype@D@0@AEBVlocale@0@@Z" = comdat any

$"?getloc@ios_base@std@@QEBA?AVlocale@2@XZ" = comdat any

$"?widen@?$ctype@D@std@@QEBADD@Z" = comdat any

$"??1locale@std@@QEAA@XZ" = comdat any

$"??Bid@locale@std@@QEAA_KXZ" = comdat any

$"?_Getfacet@locale@std@@QEBAPEBVfacet@12@_K@Z" = comdat any

$"?_Getcat@?$ctype@D@std@@SA_KPEAPEBVfacet@locale@2@PEBV42@@Z" = comdat any

$"?_Throw_bad_cast@std@@YAXXZ" = comdat any

$"??$?0U?$default_delete@V_Facet_base@std@@@std@@$0A@@?$unique_ptr@V_Facet_base@std@@U?$default_delete@V_Facet_base@std@@@2@@std@@QEAA@PEAV_Facet_base@1@@Z" = comdat any

$"?release@?$unique_ptr@V_Facet_base@std@@U?$default_delete@V_Facet_base@std@@@2@@std@@QEAAPEAV_Facet_base@2@XZ" = comdat any

$"??1?$unique_ptr@V_Facet_base@std@@U?$default_delete@V_Facet_base@std@@@2@@std@@QEAA@XZ" = comdat any

$"?_C_str@locale@std@@QEBAPEBDXZ" = comdat any

$"??0_Locinfo@std@@QEAA@PEBD@Z" = comdat any

$"??0?$ctype@D@std@@QEAA@AEBV_Locinfo@1@_K@Z" = comdat any

$"??1_Locinfo@std@@QEAA@XZ" = comdat any

$"?c_str@?$_Yarn@D@std@@QEBAPEBDXZ" = comdat any

$"??0?$_Yarn@D@std@@QEAA@XZ" = comdat any

$"??0?$_Yarn@_W@std@@QEAA@XZ" = comdat any

$"??1?$_Yarn@D@std@@QEAA@XZ" = comdat any

$"??1?$_Yarn@_W@std@@QEAA@XZ" = comdat any

$"?_Tidy@?$_Yarn@D@std@@AEAAXXZ" = comdat any

$"?_Tidy@?$_Yarn@_W@std@@AEAAXXZ" = comdat any

$"??0ctype_base@std@@QEAA@_K@Z" = comdat any

$"?_Init@?$ctype@D@std@@IEAAXAEBV_Locinfo@2@@Z" = comdat any

$"??1ctype_base@std@@UEAA@XZ" = comdat any

$"??_G?$ctype@D@std@@MEAAPEAXI@Z" = comdat any

$"?_Incref@facet@locale@std@@UEAAXXZ" = comdat any

$"?_Decref@facet@locale@std@@UEAAPEAV_Facet_base@3@XZ" = comdat any

$"?do_tolower@?$ctype@D@std@@MEBAPEBDPEADPEBD@Z" = comdat any

$"?do_tolower@?$ctype@D@std@@MEBADD@Z" = comdat any

$"?do_toupper@?$ctype@D@std@@MEBAPEBDPEADPEBD@Z" = comdat any

$"?do_toupper@?$ctype@D@std@@MEBADD@Z" = comdat any

$"?do_widen@?$ctype@D@std@@MEBAPEBDPEBD0PEAD@Z" = comdat any

$"?do_widen@?$ctype@D@std@@MEBADD@Z" = comdat any

$"?do_narrow@?$ctype@D@std@@MEBAPEBDPEBD0DPEAD@Z" = comdat any

$"?do_narrow@?$ctype@D@std@@MEBADDD@Z" = comdat any

$"??0facet@locale@std@@IEAA@_K@Z" = comdat any

$"??_Gctype_base@std@@UEAAPEAXI@Z" = comdat any

$"??0_Facet_base@std@@QEAA@XZ" = comdat any

$"??_Gfacet@locale@std@@MEAAPEAXI@Z" = comdat any

$"??_G_Facet_base@std@@UEAAPEAXI@Z" = comdat any

$"??1facet@locale@std@@MEAA@XZ" = comdat any

$"??1_Facet_base@std@@UEAA@XZ" = comdat any

$"?_Getctype@_Locinfo@std@@QEBA?AU_Ctypevec@@XZ" = comdat any

$"??1?$ctype@D@std@@MEAA@XZ" = comdat any

$"?_Tidy@?$ctype@D@std@@IEAAXXZ" = comdat any

$"??$_Adl_verify_range@PEADPEBD@std@@YAXAEBQEADAEBQEBD@Z" = comdat any

$"??$_Adl_verify_range@PEBDPEBD@std@@YAXAEBQEBD0@Z" = comdat any

$"??0bad_cast@std@@QEAA@XZ" = comdat any

$"??0bad_cast@std@@QEAA@AEBV01@@Z" = comdat any

$"??1bad_cast@std@@UEAA@XZ" = comdat any

$"??_Gbad_cast@std@@UEAAPEAXI@Z" = comdat any

$"??$?0AEAPEAV_Facet_base@std@@@?$_Compressed_pair@U?$default_delete@V_Facet_base@std@@@std@@PEAV_Facet_base@2@$00@std@@QEAA@U_Zero_then_variadic_args_t@1@AEAPEAV_Facet_base@1@@Z" = comdat any

$"??$exchange@PEAV_Facet_base@std@@$$T@std@@YAPEAV_Facet_base@0@AEAPEAV10@$$QEA$$T@Z" = comdat any

$"?_Get_first@?$_Compressed_pair@U?$default_delete@V_Facet_base@std@@@std@@PEAV_Facet_base@2@$00@std@@QEAAAEAU?$default_delete@V_Facet_base@std@@@2@XZ" = comdat any

$"??R?$default_delete@V_Facet_base@std@@@std@@QEBAXPEAV_Facet_base@1@@Z" = comdat any

$"??0locale@std@@QEAA@AEBV01@@Z" = comdat any

$"??_C@_0BC@MECHEFKN@THIS?5FUNCTION?5M?4?5?$AA@" = comdat any

$"??_C@_01PLPBNMEI@M?$AA@" = comdat any

$"??_C@_0BC@NGJCOKED@THIS?5FUNCTION?5N?4?5?$AA@" = comdat any

$"??_C@_01NANMIPIL@N?$AA@" = comdat any

$"??_C@_0BC@LJCPAKCH@THIS?5FUNCTION?5D?4?5?$AA@" = comdat any

$"??_C@_01CKDDGHAB@D?$AA@" = comdat any

$"??_C@_0BC@BJDGNEC@THIS?5FUNCTION?5E?4?5?$AA@" = comdat any

$"??_C@_01DDCIFGEA@E?$AA@" = comdat any

$"??_C@_0BC@JMEEFFPL@THIS?5FUNCTION?5B?4?5?$AA@" = comdat any

$"??_C@_01HMGJMAIH@B?$AA@" = comdat any

$"??_C@_0BC@CEPIDCJO@THIS?5FUNCTION?5C?4?5?$AA@" = comdat any

$"??_C@_01GFHCPBMG@C?$AA@" = comdat any

$"??_C@_0BC@IOPBPKBF@THIS?5FUNCTION?5A?4?5?$AA@" = comdat any

$"??_C@_01FHEEJDEE@A?$AA@" = comdat any

$"??_C@_0BC@BDCGMCKM@THIS?5FUNCTION?5F?4?5?$AA@" = comdat any

$"??_C@_01BIAFAFID@F?$AA@" = comdat any

$"??_C@_0BC@KLJKKFMJ@THIS?5FUNCTION?5G?4?5?$AA@" = comdat any

$"??_C@_01BBODEMC@G?$AA@" = comdat any

$"??_C@_0BC@PDPJLFJP@THIS?5FUNCTION?5H?4?5?$AA@" = comdat any

$"??_C@_01IGIGCIAN@H?$AA@" = comdat any

$"??_C@_0BC@OBEMBKHB@THIS?5FUNCTION?5K?4?5?$AA@" = comdat any

$"??_C@_01KNKLHLMO@K?$AA@" = comdat any

$"??_C@_0BC@NOOIKNIK@THIS?5FUNCTION?5Q?4?5?$AA@" = comdat any

$"??_C@_01BNIGIBBF@Q?$AA@" = comdat any

$"??_C@_0BC@OJDGFNLI@THIS?5FUNCTION?5T?4?5?$AA@" = comdat any

$"??_C@_01GAPBHFFA@T?$AA@" = comdat any

$"??_C@_0BF@PHHKMMFD@ios_base?3?3badbit?5set?$AA@" = comdat any

$"??_C@_0BG@FMKFHCIL@ios_base?3?3failbit?5set?$AA@" = comdat any

$"??_C@_0BF@OOHOMBOF@ios_base?3?3eofbit?5set?$AA@" = comdat any

$"??_R0?AVfailure@ios_base@std@@@8" = comdat any

$"_CT??_R0?AVfailure@ios_base@std@@@8??0failure@ios_base@std@@QEAA@AEBV012@@Z40" = comdat any

$"??_R0?AVsystem_error@std@@@8" = comdat any

$"_CT??_R0?AVsystem_error@std@@@8??0system_error@std@@QEAA@AEBV01@@Z40" = comdat any

$"??_R0?AV_System_error@std@@@8" = comdat any

$"_CT??_R0?AV_System_error@std@@@8??0_System_error@std@@QEAA@AEBV01@@Z40" = comdat any

$"??_R0?AVruntime_error@std@@@8" = comdat any

$"_CT??_R0?AVruntime_error@std@@@8??0runtime_error@std@@QEAA@AEBV01@@Z24" = comdat any

$"??_R0?AVexception@std@@@8" = comdat any

$"_CT??_R0?AVexception@std@@@8??0exception@std@@QEAA@AEBV01@@Z24" = comdat any

$"_CTA5?AVfailure@ios_base@std@@" = comdat any

$"_TI5?AVfailure@ios_base@std@@" = comdat any

$"?_Static@?1???$_Immortalize_memcpy_image@V_Iostream_error_category2@std@@@std@@YAAEBV_Iostream_error_category2@1@XZ@4V21@A" = comdat any

$"??_7_Iostream_error_category2@std@@6B@" = comdat largest

$"?$TSS0@?1???$_Immortalize_memcpy_image@V_Iostream_error_category2@std@@@std@@YAAEBV_Iostream_error_category2@1@XZ@4HA" = comdat any

$"??_R4_Iostream_error_category2@std@@6B@" = comdat any

$"??_R0?AV_Iostream_error_category2@std@@@8" = comdat any

$"??_R3_Iostream_error_category2@std@@8" = comdat any

$"??_R2_Iostream_error_category2@std@@8" = comdat any

$"??_R1A@?0A@EA@_Iostream_error_category2@std@@8" = comdat any

$"??_R1A@?0A@EA@error_category@std@@8" = comdat any

$"??_R0?AVerror_category@std@@@8" = comdat any

$"??_R3error_category@std@@8" = comdat any

$"??_R2error_category@std@@8" = comdat any

$"??_C@_08LLGCOLLL@iostream?$AA@" = comdat any

$"?_Iostream_error@?4??message@_Iostream_error_category2@std@@UEBA?AV?$basic_string@DU?$char_traits@D@std@@V?$allocator@D@2@@3@H@Z@4QBDB" = comdat any

$"??_C@_0BA@JFNIOLAK@string?5too?5long?$AA@" = comdat any

$"??_R0?AVbad_array_new_length@std@@@8" = comdat any

$"_CT??_R0?AVbad_array_new_length@std@@@8??0bad_array_new_length@std@@QEAA@AEBV01@@Z24" = comdat any

$"??_R0?AVbad_alloc@std@@@8" = comdat any

$"_CT??_R0?AVbad_alloc@std@@@8??0bad_alloc@std@@QEAA@AEBV01@@Z24" = comdat any

$"_CTA3?AVbad_array_new_length@std@@" = comdat any

$"_TI3?AVbad_array_new_length@std@@" = comdat any

$"??_C@_0BF@KINCDENJ@bad?5array?5new?5length?$AA@" = comdat any

$"??_7bad_array_new_length@std@@6B@" = comdat largest

$"??_R4bad_array_new_length@std@@6B@" = comdat any

$"??_R3bad_array_new_length@std@@8" = comdat any

$"??_R2bad_array_new_length@std@@8" = comdat any

$"??_R1A@?0A@EA@bad_array_new_length@std@@8" = comdat any

$"??_R1A@?0A@EA@bad_alloc@std@@8" = comdat any

$"??_R3bad_alloc@std@@8" = comdat any

$"??_R2bad_alloc@std@@8" = comdat any

$"??_R1A@?0A@EA@exception@std@@8" = comdat any

$"??_R3exception@std@@8" = comdat any

$"??_R2exception@std@@8" = comdat any

$"??_7bad_alloc@std@@6B@" = comdat largest

$"??_R4bad_alloc@std@@6B@" = comdat any

$"??_7exception@std@@6B@" = comdat largest

$"??_R4exception@std@@6B@" = comdat any

$"??_C@_0BC@EOODALEL@Unknown?5exception?$AA@" = comdat any

$"??_7failure@ios_base@std@@6B@" = comdat largest

$"??_R4failure@ios_base@std@@6B@" = comdat any

$"??_R3failure@ios_base@std@@8" = comdat any

$"??_R2failure@ios_base@std@@8" = comdat any

$"??_R1A@?0A@EA@failure@ios_base@std@@8" = comdat any

$"??_R1A@?0A@EA@system_error@std@@8" = comdat any

$"??_R3system_error@std@@8" = comdat any

$"??_R2system_error@std@@8" = comdat any

$"??_R1A@?0A@EA@_System_error@std@@8" = comdat any

$"??_R3_System_error@std@@8" = comdat any

$"??_R2_System_error@std@@8" = comdat any

$"??_R1A@?0A@EA@runtime_error@std@@8" = comdat any

$"??_R3runtime_error@std@@8" = comdat any

$"??_R2runtime_error@std@@8" = comdat any

$"??_7system_error@std@@6B@" = comdat largest

$"??_R4system_error@std@@6B@" = comdat any

$"??_7_System_error@std@@6B@" = comdat largest

$"??_R4_System_error@std@@6B@" = comdat any

$"??_C@_02LMMGGCAJ@?3?5?$AA@" = comdat any

$"??_7runtime_error@std@@6B@" = comdat largest

$"??_R4runtime_error@std@@6B@" = comdat any

$"?_Psave@?$_Facetptr@V?$ctype@D@std@@@std@@2PEBVfacet@locale@2@EB" = comdat any

$"??_C@_00CNPNBAHC@?$AA@" = comdat any

$"??_C@_0BA@ELKIONDK@bad?5locale?5name?$AA@" = comdat any

$"??_7?$ctype@D@std@@6B@" = comdat largest

$"??_R4?$ctype@D@std@@6B@" = comdat any

$"??_R0?AV?$ctype@D@std@@@8" = comdat any

$"??_R3?$ctype@D@std@@8" = comdat any

$"??_R2?$ctype@D@std@@8" = comdat any

$"??_R1A@?0A@EA@?$ctype@D@std@@8" = comdat any

$"??_R1A@?0A@EA@ctype_base@std@@8" = comdat any

$"??_R0?AUctype_base@std@@@8" = comdat any

$"??_R3ctype_base@std@@8" = comdat any

$"??_R2ctype_base@std@@8" = comdat any

$"??_R1A@?0A@EA@facet@locale@std@@8" = comdat any

$"??_R0?AVfacet@locale@std@@@8" = comdat any

$"??_R3facet@locale@std@@8" = comdat any

$"??_R2facet@locale@std@@8" = comdat any

$"??_R1A@?0A@EA@_Facet_base@std@@8" = comdat any

$"??_R0?AV_Facet_base@std@@@8" = comdat any

$"??_R3_Facet_base@std@@8" = comdat any

$"??_R2_Facet_base@std@@8" = comdat any

$"??_R17?0A@EA@_Crt_new_delete@std@@8" = comdat any

$"??_R0?AU_Crt_new_delete@std@@@8" = comdat any

$"??_R3_Crt_new_delete@std@@8" = comdat any

$"??_R2_Crt_new_delete@std@@8" = comdat any

$"??_R1A@?0A@EA@_Crt_new_delete@std@@8" = comdat any

$"??_7ctype_base@std@@6B@" = comdat largest

$"??_R4ctype_base@std@@6B@" = comdat any

$"??_7facet@locale@std@@6B@" = comdat largest

$"??_R4facet@locale@std@@6B@" = comdat any

$"??_7_Facet_base@std@@6B@" = comdat largest

$"??_R4_Facet_base@std@@6B@" = comdat any

$"??_R0?AVbad_cast@std@@@8" = comdat any

$"_CT??_R0?AVbad_cast@std@@@8??0bad_cast@std@@QEAA@AEBV01@@Z24" = comdat any

$"_CTA2?AVbad_cast@std@@" = comdat any

$"_TI2?AVbad_cast@std@@" = comdat any

$"??_C@_08EPJLHIJG@bad?5cast?$AA@" = comdat any

$"??_7bad_cast@std@@6B@" = comdat largest

$"??_R4bad_cast@std@@6B@" = comdat any

$"??_R3bad_cast@std@@8" = comdat any

$"??_R2bad_cast@std@@8" = comdat any

$"??_R1A@?0A@EA@bad_cast@std@@8" = comdat any

@"?cout@std@@3V?$basic_ostream@DU?$char_traits@D@std@@@1@A" = external dso_local global %"class.std::basic_ostream", align 8
@"??_C@_0BC@MECHEFKN@THIS?5FUNCTION?5M?4?5?$AA@" = linkonce_odr dso_local unnamed_addr constant [18 x i8] c"THIS FUNCTION M. \00", comdat, align 1, !dbg !0
@"??_C@_01PLPBNMEI@M?$AA@" = linkonce_odr dso_local unnamed_addr constant [2 x i8] c"M\00", comdat, align 1, !dbg !8
@"??_C@_0BC@NGJCOKED@THIS?5FUNCTION?5N?4?5?$AA@" = linkonce_odr dso_local unnamed_addr constant [18 x i8] c"THIS FUNCTION N. \00", comdat, align 1, !dbg !13
@"??_C@_01NANMIPIL@N?$AA@" = linkonce_odr dso_local unnamed_addr constant [2 x i8] c"N\00", comdat, align 1, !dbg !15
@"??_C@_0BC@LJCPAKCH@THIS?5FUNCTION?5D?4?5?$AA@" = linkonce_odr dso_local unnamed_addr constant [18 x i8] c"THIS FUNCTION D. \00", comdat, align 1, !dbg !17
@"??_C@_01CKDDGHAB@D?$AA@" = linkonce_odr dso_local unnamed_addr constant [2 x i8] c"D\00", comdat, align 1, !dbg !19
@"??_C@_0BC@BJDGNEC@THIS?5FUNCTION?5E?4?5?$AA@" = linkonce_odr dso_local unnamed_addr constant [18 x i8] c"THIS FUNCTION E. \00", comdat, align 1, !dbg !21
@"??_C@_01DDCIFGEA@E?$AA@" = linkonce_odr dso_local unnamed_addr constant [2 x i8] c"E\00", comdat, align 1, !dbg !23
@"??_C@_0BC@JMEEFFPL@THIS?5FUNCTION?5B?4?5?$AA@" = linkonce_odr dso_local unnamed_addr constant [18 x i8] c"THIS FUNCTION B. \00", comdat, align 1, !dbg !25
@"??_C@_01HMGJMAIH@B?$AA@" = linkonce_odr dso_local unnamed_addr constant [2 x i8] c"B\00", comdat, align 1, !dbg !27
@"??_C@_0BC@CEPIDCJO@THIS?5FUNCTION?5C?4?5?$AA@" = linkonce_odr dso_local unnamed_addr constant [18 x i8] c"THIS FUNCTION C. \00", comdat, align 1, !dbg !29
@"??_C@_01GFHCPBMG@C?$AA@" = linkonce_odr dso_local unnamed_addr constant [2 x i8] c"C\00", comdat, align 1, !dbg !31
@"??_C@_0BC@IOPBPKBF@THIS?5FUNCTION?5A?4?5?$AA@" = linkonce_odr dso_local unnamed_addr constant [18 x i8] c"THIS FUNCTION A. \00", comdat, align 1, !dbg !33
@"??_C@_01FHEEJDEE@A?$AA@" = linkonce_odr dso_local unnamed_addr constant [2 x i8] c"A\00", comdat, align 1, !dbg !35
@"??_C@_0BC@BDCGMCKM@THIS?5FUNCTION?5F?4?5?$AA@" = linkonce_odr dso_local unnamed_addr constant [18 x i8] c"THIS FUNCTION F. \00", comdat, align 1, !dbg !37
@"??_C@_01BIAFAFID@F?$AA@" = linkonce_odr dso_local unnamed_addr constant [2 x i8] c"F\00", comdat, align 1, !dbg !39
@"??_C@_0BC@KLJKKFMJ@THIS?5FUNCTION?5G?4?5?$AA@" = linkonce_odr dso_local unnamed_addr constant [18 x i8] c"THIS FUNCTION G. \00", comdat, align 1, !dbg !41
@"??_C@_01BBODEMC@G?$AA@" = linkonce_odr dso_local unnamed_addr constant [2 x i8] c"G\00", comdat, align 1, !dbg !43
@"??_C@_0BC@PDPJLFJP@THIS?5FUNCTION?5H?4?5?$AA@" = linkonce_odr dso_local unnamed_addr constant [18 x i8] c"THIS FUNCTION H. \00", comdat, align 1, !dbg !45
@"??_C@_01IGIGCIAN@H?$AA@" = linkonce_odr dso_local unnamed_addr constant [2 x i8] c"H\00", comdat, align 1, !dbg !47
@"??_C@_0BC@OBEMBKHB@THIS?5FUNCTION?5K?4?5?$AA@" = linkonce_odr dso_local unnamed_addr constant [18 x i8] c"THIS FUNCTION K. \00", comdat, align 1, !dbg !49
@"??_C@_01KNKLHLMO@K?$AA@" = linkonce_odr dso_local unnamed_addr constant [2 x i8] c"K\00", comdat, align 1, !dbg !51
@"??_C@_0BC@NOOIKNIK@THIS?5FUNCTION?5Q?4?5?$AA@" = linkonce_odr dso_local unnamed_addr constant [18 x i8] c"THIS FUNCTION Q. \00", comdat, align 1, !dbg !53
@"??_C@_01BNIGIBBF@Q?$AA@" = linkonce_odr dso_local unnamed_addr constant [2 x i8] c"Q\00", comdat, align 1, !dbg !55
@"??_C@_0BC@OJDGFNLI@THIS?5FUNCTION?5T?4?5?$AA@" = linkonce_odr dso_local unnamed_addr constant [18 x i8] c"THIS FUNCTION T. \00", comdat, align 1, !dbg !57
@"??_C@_01GAPBHFFA@T?$AA@" = linkonce_odr dso_local unnamed_addr constant [2 x i8] c"T\00", comdat, align 1, !dbg !59
@"??_C@_0BF@PHHKMMFD@ios_base?3?3badbit?5set?$AA@" = linkonce_odr dso_local unnamed_addr constant [21 x i8] c"ios_base::badbit set\00", comdat, align 1, !dbg !61
@"??_C@_0BG@FMKFHCIL@ios_base?3?3failbit?5set?$AA@" = linkonce_odr dso_local unnamed_addr constant [22 x i8] c"ios_base::failbit set\00", comdat, align 1, !dbg !67
@"??_C@_0BF@OOHOMBOF@ios_base?3?3eofbit?5set?$AA@" = linkonce_odr dso_local unnamed_addr constant [21 x i8] c"ios_base::eofbit set\00", comdat, align 1, !dbg !72
@"??_7type_info@@6B@" = external constant ptr
@"??_R0?AVfailure@ios_base@std@@@8" = linkonce_odr global %rtti.TypeDescriptor26 { ptr @"??_7type_info@@6B@", ptr null, [27 x i8] c".?AVfailure@ios_base@std@@\00" }, comdat
@__ImageBase = external dso_local constant i8
@"_CT??_R0?AVfailure@ios_base@std@@@8??0failure@ios_base@std@@QEAA@AEBV012@@Z40" = linkonce_odr unnamed_addr constant %eh.CatchableType { i32 0, i32 trunc (i64 sub nuw nsw (i64 ptrtoint (ptr @"??_R0?AVfailure@ios_base@std@@@8" to i64), i64 ptrtoint (ptr @__ImageBase to i64)) to i32), i32 0, i32 -1, i32 0, i32 40, i32 trunc (i64 sub nuw nsw (i64 ptrtoint (ptr @"??0failure@ios_base@std@@QEAA@AEBV012@@Z" to i64), i64 ptrtoint (ptr @__ImageBase to i64)) to i32) }, section ".xdata", comdat
@"??_R0?AVsystem_error@std@@@8" = linkonce_odr global %rtti.TypeDescriptor22 { ptr @"??_7type_info@@6B@", ptr null, [23 x i8] c".?AVsystem_error@std@@\00" }, comdat
@"_CT??_R0?AVsystem_error@std@@@8??0system_error@std@@QEAA@AEBV01@@Z40" = linkonce_odr unnamed_addr constant %eh.CatchableType { i32 0, i32 trunc (i64 sub nuw nsw (i64 ptrtoint (ptr @"??_R0?AVsystem_error@std@@@8" to i64), i64 ptrtoint (ptr @__ImageBase to i64)) to i32), i32 0, i32 -1, i32 0, i32 40, i32 trunc (i64 sub nuw nsw (i64 ptrtoint (ptr @"??0system_error@std@@QEAA@AEBV01@@Z" to i64), i64 ptrtoint (ptr @__ImageBase to i64)) to i32) }, section ".xdata", comdat
@"??_R0?AV_System_error@std@@@8" = linkonce_odr global %rtti.TypeDescriptor23 { ptr @"??_7type_info@@6B@", ptr null, [24 x i8] c".?AV_System_error@std@@\00" }, comdat
@"_CT??_R0?AV_System_error@std@@@8??0_System_error@std@@QEAA@AEBV01@@Z40" = linkonce_odr unnamed_addr constant %eh.CatchableType { i32 0, i32 trunc (i64 sub nuw nsw (i64 ptrtoint (ptr @"??_R0?AV_System_error@std@@@8" to i64), i64 ptrtoint (ptr @__ImageBase to i64)) to i32), i32 0, i32 -1, i32 0, i32 40, i32 trunc (i64 sub nuw nsw (i64 ptrtoint (ptr @"??0_System_error@std@@QEAA@AEBV01@@Z" to i64), i64 ptrtoint (ptr @__ImageBase to i64)) to i32) }, section ".xdata", comdat
@"??_R0?AVruntime_error@std@@@8" = linkonce_odr global %rtti.TypeDescriptor23 { ptr @"??_7type_info@@6B@", ptr null, [24 x i8] c".?AVruntime_error@std@@\00" }, comdat
@"_CT??_R0?AVruntime_error@std@@@8??0runtime_error@std@@QEAA@AEBV01@@Z24" = linkonce_odr unnamed_addr constant %eh.CatchableType { i32 0, i32 trunc (i64 sub nuw nsw (i64 ptrtoint (ptr @"??_R0?AVruntime_error@std@@@8" to i64), i64 ptrtoint (ptr @__ImageBase to i64)) to i32), i32 0, i32 -1, i32 0, i32 24, i32 trunc (i64 sub nuw nsw (i64 ptrtoint (ptr @"??0runtime_error@std@@QEAA@AEBV01@@Z" to i64), i64 ptrtoint (ptr @__ImageBase to i64)) to i32) }, section ".xdata", comdat
@"??_R0?AVexception@std@@@8" = linkonce_odr global %rtti.TypeDescriptor19 { ptr @"??_7type_info@@6B@", ptr null, [20 x i8] c".?AVexception@std@@\00" }, comdat
@"_CT??_R0?AVexception@std@@@8??0exception@std@@QEAA@AEBV01@@Z24" = linkonce_odr unnamed_addr constant %eh.CatchableType { i32 0, i32 trunc (i64 sub nuw nsw (i64 ptrtoint (ptr @"??_R0?AVexception@std@@@8" to i64), i64 ptrtoint (ptr @__ImageBase to i64)) to i32), i32 0, i32 -1, i32 0, i32 24, i32 trunc (i64 sub nuw nsw (i64 ptrtoint (ptr @"??0exception@std@@QEAA@AEBV01@@Z" to i64), i64 ptrtoint (ptr @__ImageBase to i64)) to i32) }, section ".xdata", comdat
@"_CTA5?AVfailure@ios_base@std@@" = linkonce_odr unnamed_addr constant %eh.CatchableTypeArray.5 { i32 5, [5 x i32] [i32 trunc (i64 sub nuw nsw (i64 ptrtoint (ptr @"_CT??_R0?AVfailure@ios_base@std@@@8??0failure@ios_base@std@@QEAA@AEBV012@@Z40" to i64), i64 ptrtoint (ptr @__ImageBase to i64)) to i32), i32 trunc (i64 sub nuw nsw (i64 ptrtoint (ptr @"_CT??_R0?AVsystem_error@std@@@8??0system_error@std@@QEAA@AEBV01@@Z40" to i64), i64 ptrtoint (ptr @__ImageBase to i64)) to i32), i32 trunc (i64 sub nuw nsw (i64 ptrtoint (ptr @"_CT??_R0?AV_System_error@std@@@8??0_System_error@std@@QEAA@AEBV01@@Z40" to i64), i64 ptrtoint (ptr @__ImageBase to i64)) to i32), i32 trunc (i64 sub nuw nsw (i64 ptrtoint (ptr @"_CT??_R0?AVruntime_error@std@@@8??0runtime_error@std@@QEAA@AEBV01@@Z24" to i64), i64 ptrtoint (ptr @__ImageBase to i64)) to i32), i32 trunc (i64 sub nuw nsw (i64 ptrtoint (ptr @"_CT??_R0?AVexception@std@@@8??0exception@std@@QEAA@AEBV01@@Z24" to i64), i64 ptrtoint (ptr @__ImageBase to i64)) to i32)] }, section ".xdata", comdat
@"_TI5?AVfailure@ios_base@std@@" = linkonce_odr unnamed_addr constant %eh.ThrowInfo { i32 0, i32 trunc (i64 sub nuw nsw (i64 ptrtoint (ptr @"??1failure@ios_base@std@@UEAA@XZ" to i64), i64 ptrtoint (ptr @__ImageBase to i64)) to i32), i32 0, i32 trunc (i64 sub nuw nsw (i64 ptrtoint (ptr @"_CTA5?AVfailure@ios_base@std@@" to i64), i64 ptrtoint (ptr @__ImageBase to i64)) to i32) }, section ".xdata", comdat
@"?_Static@?1???$_Immortalize_memcpy_image@V_Iostream_error_category2@std@@@std@@YAAEBV_Iostream_error_category2@1@XZ@4V21@A" = linkonce_odr dso_local global { ptr, %"union.std::error_category::_Addr_storage" } { ptr @"??_7_Iostream_error_category2@std@@6B@", %"union.std::error_category::_Addr_storage" { i64 5 } }, comdat, align 8, !dbg !74
@0 = private unnamed_addr constant { [7 x ptr] } { [7 x ptr] [ptr @"??_R4_Iostream_error_category2@std@@6B@", ptr @"??_G_Iostream_error_category2@std@@UEAAPEAXI@Z", ptr @"?name@_Iostream_error_category2@std@@UEBAPEBDXZ", ptr @"?message@_Iostream_error_category2@std@@UEBA?AV?$basic_string@DU?$char_traits@D@std@@V?$allocator@D@2@@2@H@Z", ptr @"?default_error_condition@error_category@std@@UEBA?AVerror_condition@2@H@Z", ptr @"?equivalent@error_category@std@@UEBA_NAEBVerror_code@2@H@Z", ptr @"?equivalent@error_category@std@@UEBA_NHAEBVerror_condition@2@@Z"] }, comdat($"??_7_Iostream_error_category2@std@@6B@")
@"?$TSS0@?1???$_Immortalize_memcpy_image@V_Iostream_error_category2@std@@@std@@YAAEBV_Iostream_error_category2@1@XZ@4HA" = linkonce_odr global i32 0, comdat, align 4
@_Init_thread_epoch = external thread_local global i32, align 4
@"??_R4_Iostream_error_category2@std@@6B@" = linkonce_odr constant %rtti.CompleteObjectLocator { i32 1, i32 0, i32 0, i32 trunc (i64 sub nuw nsw (i64 ptrtoint (ptr @"??_R0?AV_Iostream_error_category2@std@@@8" to i64), i64 ptrtoint (ptr @__ImageBase to i64)) to i32), i32 trunc (i64 sub nuw nsw (i64 ptrtoint (ptr @"??_R3_Iostream_error_category2@std@@8" to i64), i64 ptrtoint (ptr @__ImageBase to i64)) to i32), i32 trunc (i64 sub nuw nsw (i64 ptrtoint (ptr @"??_R4_Iostream_error_category2@std@@6B@" to i64), i64 ptrtoint (ptr @__ImageBase to i64)) to i32) }, comdat
@"??_R0?AV_Iostream_error_category2@std@@@8" = linkonce_odr global %rtti.TypeDescriptor35 { ptr @"??_7type_info@@6B@", ptr null, [36 x i8] c".?AV_Iostream_error_category2@std@@\00" }, comdat
@"??_R3_Iostream_error_category2@std@@8" = linkonce_odr constant %rtti.ClassHierarchyDescriptor { i32 0, i32 0, i32 2, i32 trunc (i64 sub nuw nsw (i64 ptrtoint (ptr @"??_R2_Iostream_error_category2@std@@8" to i64), i64 ptrtoint (ptr @__ImageBase to i64)) to i32) }, comdat
@"??_R2_Iostream_error_category2@std@@8" = linkonce_odr constant [3 x i32] [i32 trunc (i64 sub nuw nsw (i64 ptrtoint (ptr @"??_R1A@?0A@EA@_Iostream_error_category2@std@@8" to i64), i64 ptrtoint (ptr @__ImageBase to i64)) to i32), i32 trunc (i64 sub nuw nsw (i64 ptrtoint (ptr @"??_R1A@?0A@EA@error_category@std@@8" to i64), i64 ptrtoint (ptr @__ImageBase to i64)) to i32), i32 0], comdat
@"??_R1A@?0A@EA@_Iostream_error_category2@std@@8" = linkonce_odr constant %rtti.BaseClassDescriptor { i32 trunc (i64 sub nuw nsw (i64 ptrtoint (ptr @"??_R0?AV_Iostream_error_category2@std@@@8" to i64), i64 ptrtoint (ptr @__ImageBase to i64)) to i32), i32 1, i32 0, i32 -1, i32 0, i32 64, i32 trunc (i64 sub nuw nsw (i64 ptrtoint (ptr @"??_R3_Iostream_error_category2@std@@8" to i64), i64 ptrtoint (ptr @__ImageBase to i64)) to i32) }, comdat
@"??_R1A@?0A@EA@error_category@std@@8" = linkonce_odr constant %rtti.BaseClassDescriptor { i32 trunc (i64 sub nuw nsw (i64 ptrtoint (ptr @"??_R0?AVerror_category@std@@@8" to i64), i64 ptrtoint (ptr @__ImageBase to i64)) to i32), i32 0, i32 0, i32 -1, i32 0, i32 64, i32 trunc (i64 sub nuw nsw (i64 ptrtoint (ptr @"??_R3error_category@std@@8" to i64), i64 ptrtoint (ptr @__ImageBase to i64)) to i32) }, comdat
@"??_R0?AVerror_category@std@@@8" = linkonce_odr global %rtti.TypeDescriptor24 { ptr @"??_7type_info@@6B@", ptr null, [25 x i8] c".?AVerror_category@std@@\00" }, comdat
@"??_R3error_category@std@@8" = linkonce_odr constant %rtti.ClassHierarchyDescriptor { i32 0, i32 0, i32 1, i32 trunc (i64 sub nuw nsw (i64 ptrtoint (ptr @"??_R2error_category@std@@8" to i64), i64 ptrtoint (ptr @__ImageBase to i64)) to i32) }, comdat
@"??_R2error_category@std@@8" = linkonce_odr constant [2 x i32] [i32 trunc (i64 sub nuw nsw (i64 ptrtoint (ptr @"??_R1A@?0A@EA@error_category@std@@8" to i64), i64 ptrtoint (ptr @__ImageBase to i64)) to i32), i32 0], comdat
@"??_C@_08LLGCOLLL@iostream?$AA@" = linkonce_odr dso_local unnamed_addr constant [9 x i8] c"iostream\00", comdat, align 1, !dbg !1823
@"?_Iostream_error@?4??message@_Iostream_error_category2@std@@UEBA?AV?$basic_string@DU?$char_traits@D@std@@V?$allocator@D@2@@3@H@Z@4QBDB" = linkonce_odr dso_local constant [22 x i8] c"iostream stream error\00", comdat, align 16, !dbg !1830
@"?_Fake_alloc@std@@3U_Fake_allocator@1@B" = internal constant %"struct.std::_Fake_allocator" undef, align 1, !dbg !1836
@"??_C@_0BA@JFNIOLAK@string?5too?5long?$AA@" = linkonce_odr dso_local unnamed_addr constant [16 x i8] c"string too long\00", comdat, align 1, !dbg !1833
@"??_R0?AVbad_array_new_length@std@@@8" = linkonce_odr global %rtti.TypeDescriptor30 { ptr @"??_7type_info@@6B@", ptr null, [31 x i8] c".?AVbad_array_new_length@std@@\00" }, comdat
@"_CT??_R0?AVbad_array_new_length@std@@@8??0bad_array_new_length@std@@QEAA@AEBV01@@Z24" = linkonce_odr unnamed_addr constant %eh.CatchableType { i32 0, i32 trunc (i64 sub nuw nsw (i64 ptrtoint (ptr @"??_R0?AVbad_array_new_length@std@@@8" to i64), i64 ptrtoint (ptr @__ImageBase to i64)) to i32), i32 0, i32 -1, i32 0, i32 24, i32 trunc (i64 sub nuw nsw (i64 ptrtoint (ptr @"??0bad_array_new_length@std@@QEAA@AEBV01@@Z" to i64), i64 ptrtoint (ptr @__ImageBase to i64)) to i32) }, section ".xdata", comdat
@"??_R0?AVbad_alloc@std@@@8" = linkonce_odr global %rtti.TypeDescriptor19 { ptr @"??_7type_info@@6B@", ptr null, [20 x i8] c".?AVbad_alloc@std@@\00" }, comdat
@"_CT??_R0?AVbad_alloc@std@@@8??0bad_alloc@std@@QEAA@AEBV01@@Z24" = linkonce_odr unnamed_addr constant %eh.CatchableType { i32 16, i32 trunc (i64 sub nuw nsw (i64 ptrtoint (ptr @"??_R0?AVbad_alloc@std@@@8" to i64), i64 ptrtoint (ptr @__ImageBase to i64)) to i32), i32 0, i32 -1, i32 0, i32 24, i32 trunc (i64 sub nuw nsw (i64 ptrtoint (ptr @"??0bad_alloc@std@@QEAA@AEBV01@@Z" to i64), i64 ptrtoint (ptr @__ImageBase to i64)) to i32) }, section ".xdata", comdat
@"_CTA3?AVbad_array_new_length@std@@" = linkonce_odr unnamed_addr constant %eh.CatchableTypeArray.3 { i32 3, [3 x i32] [i32 trunc (i64 sub nuw nsw (i64 ptrtoint (ptr @"_CT??_R0?AVbad_array_new_length@std@@@8??0bad_array_new_length@std@@QEAA@AEBV01@@Z24" to i64), i64 ptrtoint (ptr @__ImageBase to i64)) to i32), i32 trunc (i64 sub nuw nsw (i64 ptrtoint (ptr @"_CT??_R0?AVbad_alloc@std@@@8??0bad_alloc@std@@QEAA@AEBV01@@Z24" to i64), i64 ptrtoint (ptr @__ImageBase to i64)) to i32), i32 trunc (i64 sub nuw nsw (i64 ptrtoint (ptr @"_CT??_R0?AVexception@std@@@8??0exception@std@@QEAA@AEBV01@@Z24" to i64), i64 ptrtoint (ptr @__ImageBase to i64)) to i32)] }, section ".xdata", comdat
@"_TI3?AVbad_array_new_length@std@@" = linkonce_odr unnamed_addr constant %eh.ThrowInfo { i32 0, i32 trunc (i64 sub nuw nsw (i64 ptrtoint (ptr @"??1bad_array_new_length@std@@UEAA@XZ" to i64), i64 ptrtoint (ptr @__ImageBase to i64)) to i32), i32 0, i32 trunc (i64 sub nuw nsw (i64 ptrtoint (ptr @"_CTA3?AVbad_array_new_length@std@@" to i64), i64 ptrtoint (ptr @__ImageBase to i64)) to i32) }, section ".xdata", comdat
@"??_C@_0BF@KINCDENJ@bad?5array?5new?5length?$AA@" = linkonce_odr dso_local unnamed_addr constant [21 x i8] c"bad array new length\00", comdat, align 1, !dbg !1844
@1 = private unnamed_addr constant { [3 x ptr] } { [3 x ptr] [ptr @"??_R4bad_array_new_length@std@@6B@", ptr @"??_Gbad_array_new_length@std@@UEAAPEAXI@Z", ptr @"?what@exception@std@@UEBAPEBDXZ"] }, comdat($"??_7bad_array_new_length@std@@6B@")
@"??_R4bad_array_new_length@std@@6B@" = linkonce_odr constant %rtti.CompleteObjectLocator { i32 1, i32 0, i32 0, i32 trunc (i64 sub nuw nsw (i64 ptrtoint (ptr @"??_R0?AVbad_array_new_length@std@@@8" to i64), i64 ptrtoint (ptr @__ImageBase to i64)) to i32), i32 trunc (i64 sub nuw nsw (i64 ptrtoint (ptr @"??_R3bad_array_new_length@std@@8" to i64), i64 ptrtoint (ptr @__ImageBase to i64)) to i32), i32 trunc (i64 sub nuw nsw (i64 ptrtoint (ptr @"??_R4bad_array_new_length@std@@6B@" to i64), i64 ptrtoint (ptr @__ImageBase to i64)) to i32) }, comdat
@"??_R3bad_array_new_length@std@@8" = linkonce_odr constant %rtti.ClassHierarchyDescriptor { i32 0, i32 0, i32 3, i32 trunc (i64 sub nuw nsw (i64 ptrtoint (ptr @"??_R2bad_array_new_length@std@@8" to i64), i64 ptrtoint (ptr @__ImageBase to i64)) to i32) }, comdat
@"??_R2bad_array_new_length@std@@8" = linkonce_odr constant [4 x i32] [i32 trunc (i64 sub nuw nsw (i64 ptrtoint (ptr @"??_R1A@?0A@EA@bad_array_new_length@std@@8" to i64), i64 ptrtoint (ptr @__ImageBase to i64)) to i32), i32 trunc (i64 sub nuw nsw (i64 ptrtoint (ptr @"??_R1A@?0A@EA@bad_alloc@std@@8" to i64), i64 ptrtoint (ptr @__ImageBase to i64)) to i32), i32 trunc (i64 sub nuw nsw (i64 ptrtoint (ptr @"??_R1A@?0A@EA@exception@std@@8" to i64), i64 ptrtoint (ptr @__ImageBase to i64)) to i32), i32 0], comdat
@"??_R1A@?0A@EA@bad_array_new_length@std@@8" = linkonce_odr constant %rtti.BaseClassDescriptor { i32 trunc (i64 sub nuw nsw (i64 ptrtoint (ptr @"??_R0?AVbad_array_new_length@std@@@8" to i64), i64 ptrtoint (ptr @__ImageBase to i64)) to i32), i32 2, i32 0, i32 -1, i32 0, i32 64, i32 trunc (i64 sub nuw nsw (i64 ptrtoint (ptr @"??_R3bad_array_new_length@std@@8" to i64), i64 ptrtoint (ptr @__ImageBase to i64)) to i32) }, comdat
@"??_R1A@?0A@EA@bad_alloc@std@@8" = linkonce_odr constant %rtti.BaseClassDescriptor { i32 trunc (i64 sub nuw nsw (i64 ptrtoint (ptr @"??_R0?AVbad_alloc@std@@@8" to i64), i64 ptrtoint (ptr @__ImageBase to i64)) to i32), i32 1, i32 0, i32 -1, i32 0, i32 64, i32 trunc (i64 sub nuw nsw (i64 ptrtoint (ptr @"??_R3bad_alloc@std@@8" to i64), i64 ptrtoint (ptr @__ImageBase to i64)) to i32) }, comdat
@"??_R3bad_alloc@std@@8" = linkonce_odr constant %rtti.ClassHierarchyDescriptor { i32 0, i32 0, i32 2, i32 trunc (i64 sub nuw nsw (i64 ptrtoint (ptr @"??_R2bad_alloc@std@@8" to i64), i64 ptrtoint (ptr @__ImageBase to i64)) to i32) }, comdat
@"??_R2bad_alloc@std@@8" = linkonce_odr constant [3 x i32] [i32 trunc (i64 sub nuw nsw (i64 ptrtoint (ptr @"??_R1A@?0A@EA@bad_alloc@std@@8" to i64), i64 ptrtoint (ptr @__ImageBase to i64)) to i32), i32 trunc (i64 sub nuw nsw (i64 ptrtoint (ptr @"??_R1A@?0A@EA@exception@std@@8" to i64), i64 ptrtoint (ptr @__ImageBase to i64)) to i32), i32 0], comdat
@"??_R1A@?0A@EA@exception@std@@8" = linkonce_odr constant %rtti.BaseClassDescriptor { i32 trunc (i64 sub nuw nsw (i64 ptrtoint (ptr @"??_R0?AVexception@std@@@8" to i64), i64 ptrtoint (ptr @__ImageBase to i64)) to i32), i32 0, i32 0, i32 -1, i32 0, i32 64, i32 trunc (i64 sub nuw nsw (i64 ptrtoint (ptr @"??_R3exception@std@@8" to i64), i64 ptrtoint (ptr @__ImageBase to i64)) to i32) }, comdat
@"??_R3exception@std@@8" = linkonce_odr constant %rtti.ClassHierarchyDescriptor { i32 0, i32 0, i32 1, i32 trunc (i64 sub nuw nsw (i64 ptrtoint (ptr @"??_R2exception@std@@8" to i64), i64 ptrtoint (ptr @__ImageBase to i64)) to i32) }, comdat
@"??_R2exception@std@@8" = linkonce_odr constant [2 x i32] [i32 trunc (i64 sub nuw nsw (i64 ptrtoint (ptr @"??_R1A@?0A@EA@exception@std@@8" to i64), i64 ptrtoint (ptr @__ImageBase to i64)) to i32), i32 0], comdat
@2 = private unnamed_addr constant { [3 x ptr] } { [3 x ptr] [ptr @"??_R4bad_alloc@std@@6B@", ptr @"??_Gbad_alloc@std@@UEAAPEAXI@Z", ptr @"?what@exception@std@@UEBAPEBDXZ"] }, comdat($"??_7bad_alloc@std@@6B@")
@"??_R4bad_alloc@std@@6B@" = linkonce_odr constant %rtti.CompleteObjectLocator { i32 1, i32 0, i32 0, i32 trunc (i64 sub nuw nsw (i64 ptrtoint (ptr @"??_R0?AVbad_alloc@std@@@8" to i64), i64 ptrtoint (ptr @__ImageBase to i64)) to i32), i32 trunc (i64 sub nuw nsw (i64 ptrtoint (ptr @"??_R3bad_alloc@std@@8" to i64), i64 ptrtoint (ptr @__ImageBase to i64)) to i32), i32 trunc (i64 sub nuw nsw (i64 ptrtoint (ptr @"??_R4bad_alloc@std@@6B@" to i64), i64 ptrtoint (ptr @__ImageBase to i64)) to i32) }, comdat
@3 = private unnamed_addr constant { [3 x ptr] } { [3 x ptr] [ptr @"??_R4exception@std@@6B@", ptr @"??_Gexception@std@@UEAAPEAXI@Z", ptr @"?what@exception@std@@UEBAPEBDXZ"] }, comdat($"??_7exception@std@@6B@")
@"??_R4exception@std@@6B@" = linkonce_odr constant %rtti.CompleteObjectLocator { i32 1, i32 0, i32 0, i32 trunc (i64 sub nuw nsw (i64 ptrtoint (ptr @"??_R0?AVexception@std@@@8" to i64), i64 ptrtoint (ptr @__ImageBase to i64)) to i32), i32 trunc (i64 sub nuw nsw (i64 ptrtoint (ptr @"??_R3exception@std@@8" to i64), i64 ptrtoint (ptr @__ImageBase to i64)) to i32), i32 trunc (i64 sub nuw nsw (i64 ptrtoint (ptr @"??_R4exception@std@@6B@" to i64), i64 ptrtoint (ptr @__ImageBase to i64)) to i32) }, comdat
@"??_C@_0BC@EOODALEL@Unknown?5exception?$AA@" = linkonce_odr dso_local unnamed_addr constant [18 x i8] c"Unknown exception\00", comdat, align 1, !dbg !1846
@4 = private unnamed_addr constant { [3 x ptr] } { [3 x ptr] [ptr @"??_R4failure@ios_base@std@@6B@", ptr @"??_Gfailure@ios_base@std@@UEAAPEAXI@Z", ptr @"?what@exception@std@@UEBAPEBDXZ"] }, comdat($"??_7failure@ios_base@std@@6B@")
@"??_R4failure@ios_base@std@@6B@" = linkonce_odr constant %rtti.CompleteObjectLocator { i32 1, i32 0, i32 0, i32 trunc (i64 sub nuw nsw (i64 ptrtoint (ptr @"??_R0?AVfailure@ios_base@std@@@8" to i64), i64 ptrtoint (ptr @__ImageBase to i64)) to i32), i32 trunc (i64 sub nuw nsw (i64 ptrtoint (ptr @"??_R3failure@ios_base@std@@8" to i64), i64 ptrtoint (ptr @__ImageBase to i64)) to i32), i32 trunc (i64 sub nuw nsw (i64 ptrtoint (ptr @"??_R4failure@ios_base@std@@6B@" to i64), i64 ptrtoint (ptr @__ImageBase to i64)) to i32) }, comdat
@"??_R3failure@ios_base@std@@8" = linkonce_odr constant %rtti.ClassHierarchyDescriptor { i32 0, i32 0, i32 5, i32 trunc (i64 sub nuw nsw (i64 ptrtoint (ptr @"??_R2failure@ios_base@std@@8" to i64), i64 ptrtoint (ptr @__ImageBase to i64)) to i32) }, comdat
@"??_R2failure@ios_base@std@@8" = linkonce_odr constant [6 x i32] [i32 trunc (i64 sub nuw nsw (i64 ptrtoint (ptr @"??_R1A@?0A@EA@failure@ios_base@std@@8" to i64), i64 ptrtoint (ptr @__ImageBase to i64)) to i32), i32 trunc (i64 sub nuw nsw (i64 ptrtoint (ptr @"??_R1A@?0A@EA@system_error@std@@8" to i64), i64 ptrtoint (ptr @__ImageBase to i64)) to i32), i32 trunc (i64 sub nuw nsw (i64 ptrtoint (ptr @"??_R1A@?0A@EA@_System_error@std@@8" to i64), i64 ptrtoint (ptr @__ImageBase to i64)) to i32), i32 trunc (i64 sub nuw nsw (i64 ptrtoint (ptr @"??_R1A@?0A@EA@runtime_error@std@@8" to i64), i64 ptrtoint (ptr @__ImageBase to i64)) to i32), i32 trunc (i64 sub nuw nsw (i64 ptrtoint (ptr @"??_R1A@?0A@EA@exception@std@@8" to i64), i64 ptrtoint (ptr @__ImageBase to i64)) to i32), i32 0], comdat
@"??_R1A@?0A@EA@failure@ios_base@std@@8" = linkonce_odr constant %rtti.BaseClassDescriptor { i32 trunc (i64 sub nuw nsw (i64 ptrtoint (ptr @"??_R0?AVfailure@ios_base@std@@@8" to i64), i64 ptrtoint (ptr @__ImageBase to i64)) to i32), i32 4, i32 0, i32 -1, i32 0, i32 64, i32 trunc (i64 sub nuw nsw (i64 ptrtoint (ptr @"??_R3failure@ios_base@std@@8" to i64), i64 ptrtoint (ptr @__ImageBase to i64)) to i32) }, comdat
@"??_R1A@?0A@EA@system_error@std@@8" = linkonce_odr constant %rtti.BaseClassDescriptor { i32 trunc (i64 sub nuw nsw (i64 ptrtoint (ptr @"??_R0?AVsystem_error@std@@@8" to i64), i64 ptrtoint (ptr @__ImageBase to i64)) to i32), i32 3, i32 0, i32 -1, i32 0, i32 64, i32 trunc (i64 sub nuw nsw (i64 ptrtoint (ptr @"??_R3system_error@std@@8" to i64), i64 ptrtoint (ptr @__ImageBase to i64)) to i32) }, comdat
@"??_R3system_error@std@@8" = linkonce_odr constant %rtti.ClassHierarchyDescriptor { i32 0, i32 0, i32 4, i32 trunc (i64 sub nuw nsw (i64 ptrtoint (ptr @"??_R2system_error@std@@8" to i64), i64 ptrtoint (ptr @__ImageBase to i64)) to i32) }, comdat
@"??_R2system_error@std@@8" = linkonce_odr constant [5 x i32] [i32 trunc (i64 sub nuw nsw (i64 ptrtoint (ptr @"??_R1A@?0A@EA@system_error@std@@8" to i64), i64 ptrtoint (ptr @__ImageBase to i64)) to i32), i32 trunc (i64 sub nuw nsw (i64 ptrtoint (ptr @"??_R1A@?0A@EA@_System_error@std@@8" to i64), i64 ptrtoint (ptr @__ImageBase to i64)) to i32), i32 trunc (i64 sub nuw nsw (i64 ptrtoint (ptr @"??_R1A@?0A@EA@runtime_error@std@@8" to i64), i64 ptrtoint (ptr @__ImageBase to i64)) to i32), i32 trunc (i64 sub nuw nsw (i64 ptrtoint (ptr @"??_R1A@?0A@EA@exception@std@@8" to i64), i64 ptrtoint (ptr @__ImageBase to i64)) to i32), i32 0], comdat
@"??_R1A@?0A@EA@_System_error@std@@8" = linkonce_odr constant %rtti.BaseClassDescriptor { i32 trunc (i64 sub nuw nsw (i64 ptrtoint (ptr @"??_R0?AV_System_error@std@@@8" to i64), i64 ptrtoint (ptr @__ImageBase to i64)) to i32), i32 2, i32 0, i32 -1, i32 0, i32 64, i32 trunc (i64 sub nuw nsw (i64 ptrtoint (ptr @"??_R3_System_error@std@@8" to i64), i64 ptrtoint (ptr @__ImageBase to i64)) to i32) }, comdat
@"??_R3_System_error@std@@8" = linkonce_odr constant %rtti.ClassHierarchyDescriptor { i32 0, i32 0, i32 3, i32 trunc (i64 sub nuw nsw (i64 ptrtoint (ptr @"??_R2_System_error@std@@8" to i64), i64 ptrtoint (ptr @__ImageBase to i64)) to i32) }, comdat
@"??_R2_System_error@std@@8" = linkonce_odr constant [4 x i32] [i32 trunc (i64 sub nuw nsw (i64 ptrtoint (ptr @"??_R1A@?0A@EA@_System_error@std@@8" to i64), i64 ptrtoint (ptr @__ImageBase to i64)) to i32), i32 trunc (i64 sub nuw nsw (i64 ptrtoint (ptr @"??_R1A@?0A@EA@runtime_error@std@@8" to i64), i64 ptrtoint (ptr @__ImageBase to i64)) to i32), i32 trunc (i64 sub nuw nsw (i64 ptrtoint (ptr @"??_R1A@?0A@EA@exception@std@@8" to i64), i64 ptrtoint (ptr @__ImageBase to i64)) to i32), i32 0], comdat
@"??_R1A@?0A@EA@runtime_error@std@@8" = linkonce_odr constant %rtti.BaseClassDescriptor { i32 trunc (i64 sub nuw nsw (i64 ptrtoint (ptr @"??_R0?AVruntime_error@std@@@8" to i64), i64 ptrtoint (ptr @__ImageBase to i64)) to i32), i32 1, i32 0, i32 -1, i32 0, i32 64, i32 trunc (i64 sub nuw nsw (i64 ptrtoint (ptr @"??_R3runtime_error@std@@8" to i64), i64 ptrtoint (ptr @__ImageBase to i64)) to i32) }, comdat
@"??_R3runtime_error@std@@8" = linkonce_odr constant %rtti.ClassHierarchyDescriptor { i32 0, i32 0, i32 2, i32 trunc (i64 sub nuw nsw (i64 ptrtoint (ptr @"??_R2runtime_error@std@@8" to i64), i64 ptrtoint (ptr @__ImageBase to i64)) to i32) }, comdat
@"??_R2runtime_error@std@@8" = linkonce_odr constant [3 x i32] [i32 trunc (i64 sub nuw nsw (i64 ptrtoint (ptr @"??_R1A@?0A@EA@runtime_error@std@@8" to i64), i64 ptrtoint (ptr @__ImageBase to i64)) to i32), i32 trunc (i64 sub nuw nsw (i64 ptrtoint (ptr @"??_R1A@?0A@EA@exception@std@@8" to i64), i64 ptrtoint (ptr @__ImageBase to i64)) to i32), i32 0], comdat
@5 = private unnamed_addr constant { [3 x ptr] } { [3 x ptr] [ptr @"??_R4system_error@std@@6B@", ptr @"??_Gsystem_error@std@@UEAAPEAXI@Z", ptr @"?what@exception@std@@UEBAPEBDXZ"] }, comdat($"??_7system_error@std@@6B@")
@"??_R4system_error@std@@6B@" = linkonce_odr constant %rtti.CompleteObjectLocator { i32 1, i32 0, i32 0, i32 trunc (i64 sub nuw nsw (i64 ptrtoint (ptr @"??_R0?AVsystem_error@std@@@8" to i64), i64 ptrtoint (ptr @__ImageBase to i64)) to i32), i32 trunc (i64 sub nuw nsw (i64 ptrtoint (ptr @"??_R3system_error@std@@8" to i64), i64 ptrtoint (ptr @__ImageBase to i64)) to i32), i32 trunc (i64 sub nuw nsw (i64 ptrtoint (ptr @"??_R4system_error@std@@6B@" to i64), i64 ptrtoint (ptr @__ImageBase to i64)) to i32) }, comdat
@6 = private unnamed_addr constant { [3 x ptr] } { [3 x ptr] [ptr @"??_R4_System_error@std@@6B@", ptr @"??_G_System_error@std@@UEAAPEAXI@Z", ptr @"?what@exception@std@@UEBAPEBDXZ"] }, comdat($"??_7_System_error@std@@6B@")
@"??_R4_System_error@std@@6B@" = linkonce_odr constant %rtti.CompleteObjectLocator { i32 1, i32 0, i32 0, i32 trunc (i64 sub nuw nsw (i64 ptrtoint (ptr @"??_R0?AV_System_error@std@@@8" to i64), i64 ptrtoint (ptr @__ImageBase to i64)) to i32), i32 trunc (i64 sub nuw nsw (i64 ptrtoint (ptr @"??_R3_System_error@std@@8" to i64), i64 ptrtoint (ptr @__ImageBase to i64)) to i32), i32 trunc (i64 sub nuw nsw (i64 ptrtoint (ptr @"??_R4_System_error@std@@6B@" to i64), i64 ptrtoint (ptr @__ImageBase to i64)) to i32) }, comdat
@"??_C@_02LMMGGCAJ@?3?5?$AA@" = linkonce_odr dso_local unnamed_addr constant [3 x i8] c": \00", comdat, align 1, !dbg !1848
@7 = private unnamed_addr constant { [3 x ptr] } { [3 x ptr] [ptr @"??_R4runtime_error@std@@6B@", ptr @"??_Gruntime_error@std@@UEAAPEAXI@Z", ptr @"?what@exception@std@@UEBAPEBDXZ"] }, comdat($"??_7runtime_error@std@@6B@")
@"??_R4runtime_error@std@@6B@" = linkonce_odr constant %rtti.CompleteObjectLocator { i32 1, i32 0, i32 0, i32 trunc (i64 sub nuw nsw (i64 ptrtoint (ptr @"??_R0?AVruntime_error@std@@@8" to i64), i64 ptrtoint (ptr @__ImageBase to i64)) to i32), i32 trunc (i64 sub nuw nsw (i64 ptrtoint (ptr @"??_R3runtime_error@std@@8" to i64), i64 ptrtoint (ptr @__ImageBase to i64)) to i32), i32 trunc (i64 sub nuw nsw (i64 ptrtoint (ptr @"??_R4runtime_error@std@@6B@" to i64), i64 ptrtoint (ptr @__ImageBase to i64)) to i32) }, comdat
@"?_Psave@?$_Facetptr@V?$ctype@D@std@@@std@@2PEBVfacet@locale@2@EB" = linkonce_odr dso_local global ptr null, comdat, align 8, !dbg !1853
@"?id@?$ctype@D@std@@2V0locale@2@A" = external dso_local global %"class.std::locale::id", align 8
@"?_Id_cnt@id@locale@std@@0HA" = external dso_local global i32, align 4
@"??_C@_00CNPNBAHC@?$AA@" = linkonce_odr dso_local unnamed_addr constant [1 x i8] zeroinitializer, comdat, align 1, !dbg !1860
@"??_C@_0BA@ELKIONDK@bad?5locale?5name?$AA@" = linkonce_odr dso_local unnamed_addr constant [16 x i8] c"bad locale name\00", comdat, align 1, !dbg !1865
@8 = private unnamed_addr constant { [12 x ptr] } { [12 x ptr] [ptr @"??_R4?$ctype@D@std@@6B@", ptr @"??_G?$ctype@D@std@@MEAAPEAXI@Z", ptr @"?_Incref@facet@locale@std@@UEAAXXZ", ptr @"?_Decref@facet@locale@std@@UEAAPEAV_Facet_base@3@XZ", ptr @"?do_tolower@?$ctype@D@std@@MEBAPEBDPEADPEBD@Z", ptr @"?do_tolower@?$ctype@D@std@@MEBADD@Z", ptr @"?do_toupper@?$ctype@D@std@@MEBAPEBDPEADPEBD@Z", ptr @"?do_toupper@?$ctype@D@std@@MEBADD@Z", ptr @"?do_widen@?$ctype@D@std@@MEBAPEBDPEBD0PEAD@Z", ptr @"?do_widen@?$ctype@D@std@@MEBADD@Z", ptr @"?do_narrow@?$ctype@D@std@@MEBAPEBDPEBD0DPEAD@Z", ptr @"?do_narrow@?$ctype@D@std@@MEBADDD@Z"] }, comdat($"??_7?$ctype@D@std@@6B@")
@"??_R4?$ctype@D@std@@6B@" = linkonce_odr constant %rtti.CompleteObjectLocator { i32 1, i32 0, i32 0, i32 trunc (i64 sub nuw nsw (i64 ptrtoint (ptr @"??_R0?AV?$ctype@D@std@@@8" to i64), i64 ptrtoint (ptr @__ImageBase to i64)) to i32), i32 trunc (i64 sub nuw nsw (i64 ptrtoint (ptr @"??_R3?$ctype@D@std@@8" to i64), i64 ptrtoint (ptr @__ImageBase to i64)) to i32), i32 trunc (i64 sub nuw nsw (i64 ptrtoint (ptr @"??_R4?$ctype@D@std@@6B@" to i64), i64 ptrtoint (ptr @__ImageBase to i64)) to i32) }, comdat
@"??_R0?AV?$ctype@D@std@@@8" = linkonce_odr global %rtti.TypeDescriptor19 { ptr @"??_7type_info@@6B@", ptr null, [20 x i8] c".?AV?$ctype@D@std@@\00" }, comdat
@"??_R3?$ctype@D@std@@8" = linkonce_odr constant %rtti.ClassHierarchyDescriptor { i32 0, i32 1, i32 5, i32 trunc (i64 sub nuw nsw (i64 ptrtoint (ptr @"??_R2?$ctype@D@std@@8" to i64), i64 ptrtoint (ptr @__ImageBase to i64)) to i32) }, comdat
@"??_R2?$ctype@D@std@@8" = linkonce_odr constant [6 x i32] [i32 trunc (i64 sub nuw nsw (i64 ptrtoint (ptr @"??_R1A@?0A@EA@?$ctype@D@std@@8" to i64), i64 ptrtoint (ptr @__ImageBase to i64)) to i32), i32 trunc (i64 sub nuw nsw (i64 ptrtoint (ptr @"??_R1A@?0A@EA@ctype_base@std@@8" to i64), i64 ptrtoint (ptr @__ImageBase to i64)) to i32), i32 trunc (i64 sub nuw nsw (i64 ptrtoint (ptr @"??_R1A@?0A@EA@facet@locale@std@@8" to i64), i64 ptrtoint (ptr @__ImageBase to i64)) to i32), i32 trunc (i64 sub nuw nsw (i64 ptrtoint (ptr @"??_R1A@?0A@EA@_Facet_base@std@@8" to i64), i64 ptrtoint (ptr @__ImageBase to i64)) to i32), i32 trunc (i64 sub nuw nsw (i64 ptrtoint (ptr @"??_R17?0A@EA@_Crt_new_delete@std@@8" to i64), i64 ptrtoint (ptr @__ImageBase to i64)) to i32), i32 0], comdat
@"??_R1A@?0A@EA@?$ctype@D@std@@8" = linkonce_odr constant %rtti.BaseClassDescriptor { i32 trunc (i64 sub nuw nsw (i64 ptrtoint (ptr @"??_R0?AV?$ctype@D@std@@@8" to i64), i64 ptrtoint (ptr @__ImageBase to i64)) to i32), i32 4, i32 0, i32 -1, i32 0, i32 64, i32 trunc (i64 sub nuw nsw (i64 ptrtoint (ptr @"??_R3?$ctype@D@std@@8" to i64), i64 ptrtoint (ptr @__ImageBase to i64)) to i32) }, comdat
@"??_R1A@?0A@EA@ctype_base@std@@8" = linkonce_odr constant %rtti.BaseClassDescriptor { i32 trunc (i64 sub nuw nsw (i64 ptrtoint (ptr @"??_R0?AUctype_base@std@@@8" to i64), i64 ptrtoint (ptr @__ImageBase to i64)) to i32), i32 3, i32 0, i32 -1, i32 0, i32 64, i32 trunc (i64 sub nuw nsw (i64 ptrtoint (ptr @"??_R3ctype_base@std@@8" to i64), i64 ptrtoint (ptr @__ImageBase to i64)) to i32) }, comdat
@"??_R0?AUctype_base@std@@@8" = linkonce_odr global %rtti.TypeDescriptor20 { ptr @"??_7type_info@@6B@", ptr null, [21 x i8] c".?AUctype_base@std@@\00" }, comdat
@"??_R3ctype_base@std@@8" = linkonce_odr constant %rtti.ClassHierarchyDescriptor { i32 0, i32 1, i32 4, i32 trunc (i64 sub nuw nsw (i64 ptrtoint (ptr @"??_R2ctype_base@std@@8" to i64), i64 ptrtoint (ptr @__ImageBase to i64)) to i32) }, comdat
@"??_R2ctype_base@std@@8" = linkonce_odr constant [5 x i32] [i32 trunc (i64 sub nuw nsw (i64 ptrtoint (ptr @"??_R1A@?0A@EA@ctype_base@std@@8" to i64), i64 ptrtoint (ptr @__ImageBase to i64)) to i32), i32 trunc (i64 sub nuw nsw (i64 ptrtoint (ptr @"??_R1A@?0A@EA@facet@locale@std@@8" to i64), i64 ptrtoint (ptr @__ImageBase to i64)) to i32), i32 trunc (i64 sub nuw nsw (i64 ptrtoint (ptr @"??_R1A@?0A@EA@_Facet_base@std@@8" to i64), i64 ptrtoint (ptr @__ImageBase to i64)) to i32), i32 trunc (i64 sub nuw nsw (i64 ptrtoint (ptr @"??_R17?0A@EA@_Crt_new_delete@std@@8" to i64), i64 ptrtoint (ptr @__ImageBase to i64)) to i32), i32 0], comdat
@"??_R1A@?0A@EA@facet@locale@std@@8" = linkonce_odr constant %rtti.BaseClassDescriptor { i32 trunc (i64 sub nuw nsw (i64 ptrtoint (ptr @"??_R0?AVfacet@locale@std@@@8" to i64), i64 ptrtoint (ptr @__ImageBase to i64)) to i32), i32 2, i32 0, i32 -1, i32 0, i32 64, i32 trunc (i64 sub nuw nsw (i64 ptrtoint (ptr @"??_R3facet@locale@std@@8" to i64), i64 ptrtoint (ptr @__ImageBase to i64)) to i32) }, comdat
@"??_R0?AVfacet@locale@std@@@8" = linkonce_odr global %rtti.TypeDescriptor22 { ptr @"??_7type_info@@6B@", ptr null, [23 x i8] c".?AVfacet@locale@std@@\00" }, comdat
@"??_R3facet@locale@std@@8" = linkonce_odr constant %rtti.ClassHierarchyDescriptor { i32 0, i32 1, i32 3, i32 trunc (i64 sub nuw nsw (i64 ptrtoint (ptr @"??_R2facet@locale@std@@8" to i64), i64 ptrtoint (ptr @__ImageBase to i64)) to i32) }, comdat
@"??_R2facet@locale@std@@8" = linkonce_odr constant [4 x i32] [i32 trunc (i64 sub nuw nsw (i64 ptrtoint (ptr @"??_R1A@?0A@EA@facet@locale@std@@8" to i64), i64 ptrtoint (ptr @__ImageBase to i64)) to i32), i32 trunc (i64 sub nuw nsw (i64 ptrtoint (ptr @"??_R1A@?0A@EA@_Facet_base@std@@8" to i64), i64 ptrtoint (ptr @__ImageBase to i64)) to i32), i32 trunc (i64 sub nuw nsw (i64 ptrtoint (ptr @"??_R17?0A@EA@_Crt_new_delete@std@@8" to i64), i64 ptrtoint (ptr @__ImageBase to i64)) to i32), i32 0], comdat
@"??_R1A@?0A@EA@_Facet_base@std@@8" = linkonce_odr constant %rtti.BaseClassDescriptor { i32 trunc (i64 sub nuw nsw (i64 ptrtoint (ptr @"??_R0?AV_Facet_base@std@@@8" to i64), i64 ptrtoint (ptr @__ImageBase to i64)) to i32), i32 0, i32 0, i32 -1, i32 0, i32 64, i32 trunc (i64 sub nuw nsw (i64 ptrtoint (ptr @"??_R3_Facet_base@std@@8" to i64), i64 ptrtoint (ptr @__ImageBase to i64)) to i32) }, comdat
@"??_R0?AV_Facet_base@std@@@8" = linkonce_odr global %rtti.TypeDescriptor21 { ptr @"??_7type_info@@6B@", ptr null, [22 x i8] c".?AV_Facet_base@std@@\00" }, comdat
@"??_R3_Facet_base@std@@8" = linkonce_odr constant %rtti.ClassHierarchyDescriptor { i32 0, i32 0, i32 1, i32 trunc (i64 sub nuw nsw (i64 ptrtoint (ptr @"??_R2_Facet_base@std@@8" to i64), i64 ptrtoint (ptr @__ImageBase to i64)) to i32) }, comdat
@"??_R2_Facet_base@std@@8" = linkonce_odr constant [2 x i32] [i32 trunc (i64 sub nuw nsw (i64 ptrtoint (ptr @"??_R1A@?0A@EA@_Facet_base@std@@8" to i64), i64 ptrtoint (ptr @__ImageBase to i64)) to i32), i32 0], comdat
@"??_R17?0A@EA@_Crt_new_delete@std@@8" = linkonce_odr constant %rtti.BaseClassDescriptor { i32 trunc (i64 sub nuw nsw (i64 ptrtoint (ptr @"??_R0?AU_Crt_new_delete@std@@@8" to i64), i64 ptrtoint (ptr @__ImageBase to i64)) to i32), i32 0, i32 8, i32 -1, i32 0, i32 64, i32 trunc (i64 sub nuw nsw (i64 ptrtoint (ptr @"??_R3_Crt_new_delete@std@@8" to i64), i64 ptrtoint (ptr @__ImageBase to i64)) to i32) }, comdat
@"??_R0?AU_Crt_new_delete@std@@@8" = linkonce_odr global %rtti.TypeDescriptor25 { ptr @"??_7type_info@@6B@", ptr null, [26 x i8] c".?AU_Crt_new_delete@std@@\00" }, comdat
@"??_R3_Crt_new_delete@std@@8" = linkonce_odr constant %rtti.ClassHierarchyDescriptor { i32 0, i32 0, i32 1, i32 trunc (i64 sub nuw nsw (i64 ptrtoint (ptr @"??_R2_Crt_new_delete@std@@8" to i64), i64 ptrtoint (ptr @__ImageBase to i64)) to i32) }, comdat
@"??_R2_Crt_new_delete@std@@8" = linkonce_odr constant [2 x i32] [i32 trunc (i64 sub nuw nsw (i64 ptrtoint (ptr @"??_R1A@?0A@EA@_Crt_new_delete@std@@8" to i64), i64 ptrtoint (ptr @__ImageBase to i64)) to i32), i32 0], comdat
@"??_R1A@?0A@EA@_Crt_new_delete@std@@8" = linkonce_odr constant %rtti.BaseClassDescriptor { i32 trunc (i64 sub nuw nsw (i64 ptrtoint (ptr @"??_R0?AU_Crt_new_delete@std@@@8" to i64), i64 ptrtoint (ptr @__ImageBase to i64)) to i32), i32 0, i32 0, i32 -1, i32 0, i32 64, i32 trunc (i64 sub nuw nsw (i64 ptrtoint (ptr @"??_R3_Crt_new_delete@std@@8" to i64), i64 ptrtoint (ptr @__ImageBase to i64)) to i32) }, comdat
@9 = private unnamed_addr constant { [4 x ptr] } { [4 x ptr] [ptr @"??_R4ctype_base@std@@6B@", ptr @"??_Gctype_base@std@@UEAAPEAXI@Z", ptr @"?_Incref@facet@locale@std@@UEAAXXZ", ptr @"?_Decref@facet@locale@std@@UEAAPEAV_Facet_base@3@XZ"] }, comdat($"??_7ctype_base@std@@6B@")
@"??_R4ctype_base@std@@6B@" = linkonce_odr constant %rtti.CompleteObjectLocator { i32 1, i32 0, i32 0, i32 trunc (i64 sub nuw nsw (i64 ptrtoint (ptr @"??_R0?AUctype_base@std@@@8" to i64), i64 ptrtoint (ptr @__ImageBase to i64)) to i32), i32 trunc (i64 sub nuw nsw (i64 ptrtoint (ptr @"??_R3ctype_base@std@@8" to i64), i64 ptrtoint (ptr @__ImageBase to i64)) to i32), i32 trunc (i64 sub nuw nsw (i64 ptrtoint (ptr @"??_R4ctype_base@std@@6B@" to i64), i64 ptrtoint (ptr @__ImageBase to i64)) to i32) }, comdat
@10 = private unnamed_addr constant { [4 x ptr] } { [4 x ptr] [ptr @"??_R4facet@locale@std@@6B@", ptr @"??_Gfacet@locale@std@@MEAAPEAXI@Z", ptr @"?_Incref@facet@locale@std@@UEAAXXZ", ptr @"?_Decref@facet@locale@std@@UEAAPEAV_Facet_base@3@XZ"] }, comdat($"??_7facet@locale@std@@6B@")
@"??_R4facet@locale@std@@6B@" = linkonce_odr constant %rtti.CompleteObjectLocator { i32 1, i32 0, i32 0, i32 trunc (i64 sub nuw nsw (i64 ptrtoint (ptr @"??_R0?AVfacet@locale@std@@@8" to i64), i64 ptrtoint (ptr @__ImageBase to i64)) to i32), i32 trunc (i64 sub nuw nsw (i64 ptrtoint (ptr @"??_R3facet@locale@std@@8" to i64), i64 ptrtoint (ptr @__ImageBase to i64)) to i32), i32 trunc (i64 sub nuw nsw (i64 ptrtoint (ptr @"??_R4facet@locale@std@@6B@" to i64), i64 ptrtoint (ptr @__ImageBase to i64)) to i32) }, comdat
@11 = private unnamed_addr constant { [4 x ptr] } { [4 x ptr] [ptr @"??_R4_Facet_base@std@@6B@", ptr @"??_G_Facet_base@std@@UEAAPEAXI@Z", ptr @_purecall, ptr @_purecall] }, comdat($"??_7_Facet_base@std@@6B@")
@"??_R4_Facet_base@std@@6B@" = linkonce_odr constant %rtti.CompleteObjectLocator { i32 1, i32 0, i32 0, i32 trunc (i64 sub nuw nsw (i64 ptrtoint (ptr @"??_R0?AV_Facet_base@std@@@8" to i64), i64 ptrtoint (ptr @__ImageBase to i64)) to i32), i32 trunc (i64 sub nuw nsw (i64 ptrtoint (ptr @"??_R3_Facet_base@std@@8" to i64), i64 ptrtoint (ptr @__ImageBase to i64)) to i32), i32 trunc (i64 sub nuw nsw (i64 ptrtoint (ptr @"??_R4_Facet_base@std@@6B@" to i64), i64 ptrtoint (ptr @__ImageBase to i64)) to i32) }, comdat
@"??_R0?AVbad_cast@std@@@8" = linkonce_odr global %rtti.TypeDescriptor18 { ptr @"??_7type_info@@6B@", ptr null, [19 x i8] c".?AVbad_cast@std@@\00" }, comdat
@"_CT??_R0?AVbad_cast@std@@@8??0bad_cast@std@@QEAA@AEBV01@@Z24" = linkonce_odr unnamed_addr constant %eh.CatchableType { i32 0, i32 trunc (i64 sub nuw nsw (i64 ptrtoint (ptr @"??_R0?AVbad_cast@std@@@8" to i64), i64 ptrtoint (ptr @__ImageBase to i64)) to i32), i32 0, i32 -1, i32 0, i32 24, i32 trunc (i64 sub nuw nsw (i64 ptrtoint (ptr @"??0bad_cast@std@@QEAA@AEBV01@@Z" to i64), i64 ptrtoint (ptr @__ImageBase to i64)) to i32) }, section ".xdata", comdat
@"_CTA2?AVbad_cast@std@@" = linkonce_odr unnamed_addr constant %eh.CatchableTypeArray.2 { i32 2, [2 x i32] [i32 trunc (i64 sub nuw nsw (i64 ptrtoint (ptr @"_CT??_R0?AVbad_cast@std@@@8??0bad_cast@std@@QEAA@AEBV01@@Z24" to i64), i64 ptrtoint (ptr @__ImageBase to i64)) to i32), i32 trunc (i64 sub nuw nsw (i64 ptrtoint (ptr @"_CT??_R0?AVexception@std@@@8??0exception@std@@QEAA@AEBV01@@Z24" to i64), i64 ptrtoint (ptr @__ImageBase to i64)) to i32)] }, section ".xdata", comdat
@"_TI2?AVbad_cast@std@@" = linkonce_odr unnamed_addr constant %eh.ThrowInfo { i32 0, i32 trunc (i64 sub nuw nsw (i64 ptrtoint (ptr @"??1bad_cast@std@@UEAA@XZ" to i64), i64 ptrtoint (ptr @__ImageBase to i64)) to i32), i32 0, i32 trunc (i64 sub nuw nsw (i64 ptrtoint (ptr @"_CTA2?AVbad_cast@std@@" to i64), i64 ptrtoint (ptr @__ImageBase to i64)) to i32) }, section ".xdata", comdat
@"??_C@_08EPJLHIJG@bad?5cast?$AA@" = linkonce_odr dso_local unnamed_addr constant [9 x i8] c"bad cast\00", comdat, align 1, !dbg !1867
@12 = private unnamed_addr constant { [3 x ptr] } { [3 x ptr] [ptr @"??_R4bad_cast@std@@6B@", ptr @"??_Gbad_cast@std@@UEAAPEAXI@Z", ptr @"?what@exception@std@@UEBAPEBDXZ"] }, comdat($"??_7bad_cast@std@@6B@")
@"??_R4bad_cast@std@@6B@" = linkonce_odr constant %rtti.CompleteObjectLocator { i32 1, i32 0, i32 0, i32 trunc (i64 sub nuw nsw (i64 ptrtoint (ptr @"??_R0?AVbad_cast@std@@@8" to i64), i64 ptrtoint (ptr @__ImageBase to i64)) to i32), i32 trunc (i64 sub nuw nsw (i64 ptrtoint (ptr @"??_R3bad_cast@std@@8" to i64), i64 ptrtoint (ptr @__ImageBase to i64)) to i32), i32 trunc (i64 sub nuw nsw (i64 ptrtoint (ptr @"??_R4bad_cast@std@@6B@" to i64), i64 ptrtoint (ptr @__ImageBase to i64)) to i32) }, comdat
@"??_R3bad_cast@std@@8" = linkonce_odr constant %rtti.ClassHierarchyDescriptor { i32 0, i32 0, i32 2, i32 trunc (i64 sub nuw nsw (i64 ptrtoint (ptr @"??_R2bad_cast@std@@8" to i64), i64 ptrtoint (ptr @__ImageBase to i64)) to i32) }, comdat
@"??_R2bad_cast@std@@8" = linkonce_odr constant [3 x i32] [i32 trunc (i64 sub nuw nsw (i64 ptrtoint (ptr @"??_R1A@?0A@EA@bad_cast@std@@8" to i64), i64 ptrtoint (ptr @__ImageBase to i64)) to i32), i32 trunc (i64 sub nuw nsw (i64 ptrtoint (ptr @"??_R1A@?0A@EA@exception@std@@8" to i64), i64 ptrtoint (ptr @__ImageBase to i64)) to i32), i32 0], comdat
@"??_R1A@?0A@EA@bad_cast@std@@8" = linkonce_odr constant %rtti.BaseClassDescriptor { i32 trunc (i64 sub nuw nsw (i64 ptrtoint (ptr @"??_R0?AVbad_cast@std@@@8" to i64), i64 ptrtoint (ptr @__ImageBase to i64)) to i32), i32 1, i32 0, i32 -1, i32 0, i32 64, i32 trunc (i64 sub nuw nsw (i64 ptrtoint (ptr @"??_R3bad_cast@std@@8" to i64), i64 ptrtoint (ptr @__ImageBase to i64)) to i32) }, comdat

@"??_7_Iostream_error_category2@std@@6B@" = unnamed_addr alias ptr, getelementptr inbounds ({ [7 x ptr] }, ptr @0, i32 0, i32 0, i32 1)
@"??_7bad_array_new_length@std@@6B@" = unnamed_addr alias ptr, getelementptr inbounds ({ [3 x ptr] }, ptr @1, i32 0, i32 0, i32 1)
@"??_7bad_alloc@std@@6B@" = unnamed_addr alias ptr, getelementptr inbounds ({ [3 x ptr] }, ptr @2, i32 0, i32 0, i32 1)
@"??_7exception@std@@6B@" = unnamed_addr alias ptr, getelementptr inbounds ({ [3 x ptr] }, ptr @3, i32 0, i32 0, i32 1)
@"??_7failure@ios_base@std@@6B@" = unnamed_addr alias ptr, getelementptr inbounds ({ [3 x ptr] }, ptr @4, i32 0, i32 0, i32 1)
@"??_7system_error@std@@6B@" = unnamed_addr alias ptr, getelementptr inbounds ({ [3 x ptr] }, ptr @5, i32 0, i32 0, i32 1)
@"??_7_System_error@std@@6B@" = unnamed_addr alias ptr, getelementptr inbounds ({ [3 x ptr] }, ptr @6, i32 0, i32 0, i32 1)
@"??_7runtime_error@std@@6B@" = unnamed_addr alias ptr, getelementptr inbounds ({ [3 x ptr] }, ptr @7, i32 0, i32 0, i32 1)
@"??_7?$ctype@D@std@@6B@" = unnamed_addr alias ptr, getelementptr inbounds ({ [12 x ptr] }, ptr @8, i32 0, i32 0, i32 1)
@"??_7ctype_base@std@@6B@" = unnamed_addr alias ptr, getelementptr inbounds ({ [4 x ptr] }, ptr @9, i32 0, i32 0, i32 1)
@"??_7facet@locale@std@@6B@" = unnamed_addr alias ptr, getelementptr inbounds ({ [4 x ptr] }, ptr @10, i32 0, i32 0, i32 1)
@"??_7_Facet_base@std@@6B@" = unnamed_addr alias ptr, getelementptr inbounds ({ [4 x ptr] }, ptr @11, i32 0, i32 0, i32 1)
@"??_7bad_cast@std@@6B@" = unnamed_addr alias ptr, getelementptr inbounds ({ [3 x ptr] }, ptr @12, i32 0, i32 0, i32 1)

; Function Attrs: mustprogress noinline optnone uwtable
define dso_local void @"?M@@YAXXZ"() #0 !dbg !3026 {
  %1 = call noundef nonnull align 8 dereferenceable(8) ptr @"??$?6U?$char_traits@D@std@@@std@@YAAEAV?$basic_ostream@DU?$char_traits@D@std@@@0@AEAV10@PEBD@Z"(ptr noundef nonnull align 8 dereferenceable(8) @"?cout@std@@3V?$basic_ostream@DU?$char_traits@D@std@@@1@A", ptr noundef @"??_C@_0BC@MECHEFKN@THIS?5FUNCTION?5M?4?5?$AA@"), !dbg !3027
  %2 = call noundef nonnull align 8 dereferenceable(8) ptr @"??6?$basic_ostream@DU?$char_traits@D@std@@@std@@QEAAAEAV01@P6AAEAV01@AEAV01@@Z@Z"(ptr noundef nonnull align 8 dereferenceable(8) %1, ptr noundef @"??$endl@DU?$char_traits@D@std@@@std@@YAAEAV?$basic_ostream@DU?$char_traits@D@std@@@0@AEAV10@@Z"), !dbg !3027
  %3 = call noundef nonnull align 8 dereferenceable(8) ptr @"??$?6U?$char_traits@D@std@@@std@@YAAEAV?$basic_ostream@DU?$char_traits@D@std@@@0@AEAV10@PEBD@Z"(ptr noundef nonnull align 8 dereferenceable(8) @"?cout@std@@3V?$basic_ostream@DU?$char_traits@D@std@@@1@A", ptr noundef @"??_C@_01PLPBNMEI@M?$AA@"), !dbg !3028
  %4 = call noundef nonnull align 8 dereferenceable(8) ptr @"??6?$basic_ostream@DU?$char_traits@D@std@@@std@@QEAAAEAV01@P6AAEAV01@AEAV01@@Z@Z"(ptr noundef nonnull align 8 dereferenceable(8) %3, ptr noundef @"??$endl@DU?$char_traits@D@std@@@std@@YAAEAV?$basic_ostream@DU?$char_traits@D@std@@@0@AEAV10@@Z"), !dbg !3028
  ret void, !dbg !3029
}

; Function Attrs: mustprogress noinline optnone uwtable
define linkonce_odr dso_local noundef nonnull align 8 dereferenceable(8) ptr @"??$?6U?$char_traits@D@std@@@std@@YAAEAV?$basic_ostream@DU?$char_traits@D@std@@@0@AEAV10@PEBD@Z"(ptr noundef nonnull align 8 dereferenceable(8) %0, ptr noundef %1) #0 comdat personality ptr @__CxxFrameHandler3 !dbg !3030 {
  %3 = alloca ptr, align 8
  %4 = alloca ptr, align 8
  %5 = alloca i32, align 4
  %6 = alloca i64, align 8
  %7 = alloca i64, align 8
  %8 = alloca %"class.std::basic_ostream<char>::sentry", align 8
  store ptr %1, ptr %3, align 8
    #dbg_declare(ptr %3, !3035, !DIExpression(), !3036)
  store ptr %0, ptr %4, align 8
    #dbg_declare(ptr %4, !3037, !DIExpression(), !3036)
    #dbg_declare(ptr %5, !3038, !DIExpression(), !3040)
  store i32 0, ptr %5, align 4, !dbg !3040
    #dbg_declare(ptr %6, !3041, !DIExpression(), !3042)
  %9 = load ptr, ptr %3, align 8, !dbg !3042
  %10 = call noundef i64 @"?length@?$_Narrow_char_traits@DH@std@@SA_KQEBD@Z"(ptr noundef %9) #4, !dbg !3042
  store i64 %10, ptr %6, align 8, !dbg !3042
    #dbg_declare(ptr %7, !3043, !DIExpression(), !3044)
  %11 = load ptr, ptr %4, align 8, !dbg !3044, !nonnull !308, !align !3045
  %12 = getelementptr inbounds i8, ptr %11, i64 0, !dbg !3044
  %13 = load ptr, ptr %12, align 8, !dbg !3044
  %14 = getelementptr inbounds i32, ptr %13, i32 1, !dbg !3044
  %15 = load i32, ptr %14, align 4, !dbg !3044
  %16 = sext i32 %15 to i64, !dbg !3044
  %17 = add nsw i64 0, %16, !dbg !3044
  %18 = getelementptr inbounds i8, ptr %11, i64 %17, !dbg !3044
  %19 = call noundef i64 @"?width@ios_base@std@@QEBA_JXZ"(ptr noundef nonnull align 8 dereferenceable(72) %18) #4, !dbg !3044
  %20 = icmp sle i64 %19, 0, !dbg !3044
  br i1 %20, label %33, label %21, !dbg !3044

21:                                               ; preds = %2
  %22 = load ptr, ptr %4, align 8, !dbg !3044, !nonnull !308, !align !3045
  %23 = getelementptr inbounds i8, ptr %22, i64 0, !dbg !3044
  %24 = load ptr, ptr %23, align 8, !dbg !3044
  %25 = getelementptr inbounds i32, ptr %24, i32 1, !dbg !3044
  %26 = load i32, ptr %25, align 4, !dbg !3044
  %27 = sext i32 %26 to i64, !dbg !3044
  %28 = add nsw i64 0, %27, !dbg !3044
  %29 = getelementptr inbounds i8, ptr %22, i64 %28, !dbg !3044
  %30 = call noundef i64 @"?width@ios_base@std@@QEBA_JXZ"(ptr noundef nonnull align 8 dereferenceable(72) %29) #4, !dbg !3044
  %31 = load i64, ptr %6, align 8, !dbg !3044
  %32 = icmp sle i64 %30, %31, !dbg !3044
  br i1 %32, label %33, label %34, !dbg !3044

33:                                               ; preds = %21, %2
  br label %46, !dbg !3044

34:                                               ; preds = %21
  %35 = load ptr, ptr %4, align 8, !dbg !3044, !nonnull !308, !align !3045
  %36 = getelementptr inbounds i8, ptr %35, i64 0, !dbg !3044
  %37 = load ptr, ptr %36, align 8, !dbg !3044
  %38 = getelementptr inbounds i32, ptr %37, i32 1, !dbg !3044
  %39 = load i32, ptr %38, align 4, !dbg !3044
  %40 = sext i32 %39 to i64, !dbg !3044
  %41 = add nsw i64 0, %40, !dbg !3044
  %42 = getelementptr inbounds i8, ptr %35, i64 %41, !dbg !3044
  %43 = call noundef i64 @"?width@ios_base@std@@QEBA_JXZ"(ptr noundef nonnull align 8 dereferenceable(72) %42) #4, !dbg !3044
  %44 = load i64, ptr %6, align 8, !dbg !3044
  %45 = sub nsw i64 %43, %44, !dbg !3044
  br label %46, !dbg !3044

46:                                               ; preds = %34, %33
  %47 = phi i64 [ 0, %33 ], [ %45, %34 ], !dbg !3044
  store i64 %47, ptr %7, align 8, !dbg !3044
    #dbg_declare(ptr %8, !3046, !DIExpression(), !3047)
  %48 = load ptr, ptr %4, align 8, !dbg !3047, !nonnull !308, !align !3045
  %49 = call noundef ptr @"??0sentry@?$basic_ostream@DU?$char_traits@D@std@@@std@@QEAA@AEAV12@@Z"(ptr noundef nonnull align 8 dereferenceable(16) %8, ptr noundef nonnull align 8 dereferenceable(8) %48), !dbg !3047
  %50 = invoke noundef zeroext i1 @"??Bsentry@?$basic_ostream@DU?$char_traits@D@std@@@std@@QEBA_NXZ"(ptr noundef nonnull align 8 dereferenceable(16) %8)
          to label %51 unwind label %199, !dbg !3048

51:                                               ; preds = %46
  br i1 %50, label %55, label %52, !dbg !3048

52:                                               ; preds = %51
  %53 = load i32, ptr %5, align 4, !dbg !3049
  %54 = or i32 %53, 4, !dbg !3049
  store i32 %54, ptr %5, align 4, !dbg !3049
  br label %187, !dbg !3052

55:                                               ; preds = %51
  %56 = load ptr, ptr %4, align 8, !dbg !3053, !nonnull !308, !align !3045
  %57 = getelementptr inbounds i8, ptr %56, i64 0, !dbg !3053
  %58 = load ptr, ptr %57, align 8, !dbg !3053
  %59 = getelementptr inbounds i32, ptr %58, i32 1, !dbg !3053
  %60 = load i32, ptr %59, align 4, !dbg !3053
  %61 = sext i32 %60 to i64, !dbg !3053
  %62 = add nsw i64 0, %61, !dbg !3053
  %63 = getelementptr inbounds i8, ptr %56, i64 %62, !dbg !3053
  %64 = call noundef i32 @"?flags@ios_base@std@@QEBAHXZ"(ptr noundef nonnull align 8 dereferenceable(72) %63) #4, !dbg !3053
  %65 = and i32 %64, 448, !dbg !3053
  %66 = icmp ne i32 %65, 64, !dbg !3053
  br i1 %66, label %67, label %102, !dbg !3053

67:                                               ; preds = %55
  br label %68, !dbg !3056

68:                                               ; preds = %98, %67
  %69 = load i64, ptr %7, align 8, !dbg !3059
  %70 = icmp slt i64 0, %69, !dbg !3059
  br i1 %70, label %71, label %101, !dbg !3059

71:                                               ; preds = %68
  %72 = load ptr, ptr %4, align 8, !dbg !3061, !nonnull !308, !align !3045
  %73 = getelementptr inbounds i8, ptr %72, i64 0, !dbg !3061
  %74 = load ptr, ptr %73, align 8, !dbg !3061
  %75 = getelementptr inbounds i32, ptr %74, i32 1, !dbg !3061
  %76 = load i32, ptr %75, align 4, !dbg !3061
  %77 = sext i32 %76 to i64, !dbg !3061
  %78 = add nsw i64 0, %77, !dbg !3061
  %79 = getelementptr inbounds i8, ptr %72, i64 %78, !dbg !3061
  %80 = call noundef ptr @"?rdbuf@?$basic_ios@DU?$char_traits@D@std@@@std@@QEBAPEAV?$basic_streambuf@DU?$char_traits@D@std@@@2@XZ"(ptr noundef nonnull align 8 dereferenceable(96) %79) #4, !dbg !3061
  %81 = load ptr, ptr %4, align 8, !dbg !3061, !nonnull !308, !align !3045
  %82 = getelementptr inbounds i8, ptr %81, i64 0, !dbg !3061
  %83 = load ptr, ptr %82, align 8, !dbg !3061
  %84 = getelementptr inbounds i32, ptr %83, i32 1, !dbg !3061
  %85 = load i32, ptr %84, align 4, !dbg !3061
  %86 = sext i32 %85 to i64, !dbg !3061
  %87 = add nsw i64 0, %86, !dbg !3061
  %88 = getelementptr inbounds i8, ptr %81, i64 %87, !dbg !3061
  %89 = call noundef i8 @"?fill@?$basic_ios@DU?$char_traits@D@std@@@std@@QEBADXZ"(ptr noundef nonnull align 8 dereferenceable(96) %88) #4, !dbg !3061
  %90 = invoke noundef i32 @"?sputc@?$basic_streambuf@DU?$char_traits@D@std@@@std@@QEAAHD@Z"(ptr noundef nonnull align 8 dereferenceable(104) %80, i8 noundef %89)
          to label %91 unwind label %151, !dbg !3061

91:                                               ; preds = %71
  %92 = call noundef i32 @"?eof@?$_Narrow_char_traits@DH@std@@SAHXZ"() #4, !dbg !3061
  %93 = call noundef zeroext i1 @"?eq_int_type@?$_Narrow_char_traits@DH@std@@SA_NHH@Z"(i32 noundef %92, i32 noundef %90) #4, !dbg !3061
  br i1 %93, label %94, label %97, !dbg !3061

94:                                               ; preds = %91
  %95 = load i32, ptr %5, align 4, !dbg !3064
  %96 = or i32 %95, 4, !dbg !3064
  store i32 %96, ptr %5, align 4, !dbg !3064
  br label %101, !dbg !3067

97:                                               ; preds = %91
  br label %98, !dbg !3068

98:                                               ; preds = %97
  %99 = load i64, ptr %7, align 8, !dbg !3069
  %100 = add nsw i64 %99, -1, !dbg !3069
  store i64 %100, ptr %7, align 8, !dbg !3069
  br label %68, !dbg !3069, !llvm.loop !3070

101:                                              ; preds = %94, %68
  br label %102, !dbg !3073

102:                                              ; preds = %101, %55
  %103 = load i32, ptr %5, align 4, !dbg !3074
  %104 = icmp eq i32 %103, 0, !dbg !3074
  br i1 %104, label %105, label %124, !dbg !3074

105:                                              ; preds = %102
  %106 = load ptr, ptr %4, align 8, !dbg !3074, !nonnull !308, !align !3045
  %107 = getelementptr inbounds i8, ptr %106, i64 0, !dbg !3074
  %108 = load ptr, ptr %107, align 8, !dbg !3074
  %109 = getelementptr inbounds i32, ptr %108, i32 1, !dbg !3074
  %110 = load i32, ptr %109, align 4, !dbg !3074
  %111 = sext i32 %110 to i64, !dbg !3074
  %112 = add nsw i64 0, %111, !dbg !3074
  %113 = getelementptr inbounds i8, ptr %106, i64 %112, !dbg !3074
  %114 = call noundef ptr @"?rdbuf@?$basic_ios@DU?$char_traits@D@std@@@std@@QEBAPEAV?$basic_streambuf@DU?$char_traits@D@std@@@2@XZ"(ptr noundef nonnull align 8 dereferenceable(96) %113) #4, !dbg !3074
  %115 = load i64, ptr %6, align 8, !dbg !3074
  %116 = load ptr, ptr %3, align 8, !dbg !3074
  %117 = invoke noundef i64 @"?sputn@?$basic_streambuf@DU?$char_traits@D@std@@@std@@QEAA_JPEBD_J@Z"(ptr noundef nonnull align 8 dereferenceable(104) %114, ptr noundef %116, i64 noundef %115)
          to label %118 unwind label %151, !dbg !3074

118:                                              ; preds = %105
  %119 = load i64, ptr %6, align 8, !dbg !3074
  %120 = icmp ne i64 %117, %119, !dbg !3074
  br i1 %120, label %121, label %124, !dbg !3074

121:                                              ; preds = %118
  %122 = load i32, ptr %5, align 4, !dbg !3075
  %123 = or i32 %122, 4, !dbg !3075
  store i32 %123, ptr %5, align 4, !dbg !3075
  br label %124, !dbg !3078

124:                                              ; preds = %121, %118, %102
  %125 = load i32, ptr %5, align 4, !dbg !3079
  %126 = icmp eq i32 %125, 0, !dbg !3079
  br i1 %126, label %127, label %177, !dbg !3079

127:                                              ; preds = %124
  br label %128, !dbg !3080

128:                                              ; preds = %173, %127
  %129 = load i64, ptr %7, align 8, !dbg !3083
  %130 = icmp slt i64 0, %129, !dbg !3083
  br i1 %130, label %131, label %176, !dbg !3083

131:                                              ; preds = %128
  %132 = load ptr, ptr %4, align 8, !dbg !3085, !nonnull !308, !align !3045
  %133 = getelementptr inbounds i8, ptr %132, i64 0, !dbg !3085
  %134 = load ptr, ptr %133, align 8, !dbg !3085
  %135 = getelementptr inbounds i32, ptr %134, i32 1, !dbg !3085
  %136 = load i32, ptr %135, align 4, !dbg !3085
  %137 = sext i32 %136 to i64, !dbg !3085
  %138 = add nsw i64 0, %137, !dbg !3085
  %139 = getelementptr inbounds i8, ptr %132, i64 %138, !dbg !3085
  %140 = call noundef ptr @"?rdbuf@?$basic_ios@DU?$char_traits@D@std@@@std@@QEBAPEAV?$basic_streambuf@DU?$char_traits@D@std@@@2@XZ"(ptr noundef nonnull align 8 dereferenceable(96) %139) #4, !dbg !3085
  %141 = load ptr, ptr %4, align 8, !dbg !3085, !nonnull !308, !align !3045
  %142 = getelementptr inbounds i8, ptr %141, i64 0, !dbg !3085
  %143 = load ptr, ptr %142, align 8, !dbg !3085
  %144 = getelementptr inbounds i32, ptr %143, i32 1, !dbg !3085
  %145 = load i32, ptr %144, align 4, !dbg !3085
  %146 = sext i32 %145 to i64, !dbg !3085
  %147 = add nsw i64 0, %146, !dbg !3085
  %148 = getelementptr inbounds i8, ptr %141, i64 %147, !dbg !3085
  %149 = call noundef i8 @"?fill@?$basic_ios@DU?$char_traits@D@std@@@std@@QEBADXZ"(ptr noundef nonnull align 8 dereferenceable(96) %148) #4, !dbg !3085
  %150 = invoke noundef i32 @"?sputc@?$basic_streambuf@DU?$char_traits@D@std@@@std@@QEAAHD@Z"(ptr noundef nonnull align 8 dereferenceable(104) %140, i8 noundef %149)
          to label %166 unwind label %151, !dbg !3085

151:                                              ; preds = %131, %105, %71
  %152 = catchswitch within none [label %153] unwind label %199, !dbg !3088

153:                                              ; preds = %151
  %154 = catchpad within %152 [ptr null, i32 64, ptr null], !dbg !3088
  %155 = load ptr, ptr %4, align 8, !dbg !3089, !nonnull !308, !align !3045
  %156 = getelementptr inbounds i8, ptr %155, i64 0, !dbg !3089
  %157 = load ptr, ptr %156, align 8, !dbg !3089
  %158 = getelementptr inbounds i32, ptr %157, i32 1, !dbg !3089
  %159 = load i32, ptr %158, align 4, !dbg !3089
  %160 = sext i32 %159 to i64, !dbg !3089
  %161 = add nsw i64 0, %160, !dbg !3089
  %162 = getelementptr inbounds i8, ptr %155, i64 %161, !dbg !3089
  invoke void @"?setstate@?$basic_ios@DU?$char_traits@D@std@@@std@@QEAAXH_N@Z"(ptr noundef nonnull align 8 dereferenceable(96) %162, i32 noundef 4, i1 noundef zeroext true) [ "funclet"(token %154) ]
          to label %163 unwind label %199, !dbg !3089

163:                                              ; preds = %153
  catchret from %154 to label %164, !dbg !3089

164:                                              ; preds = %163
  br label %165, !dbg !3089

165:                                              ; preds = %164, %177
  br label %187, !dbg !3091

166:                                              ; preds = %131
  %167 = call noundef i32 @"?eof@?$_Narrow_char_traits@DH@std@@SAHXZ"() #4, !dbg !3085
  %168 = call noundef zeroext i1 @"?eq_int_type@?$_Narrow_char_traits@DH@std@@SA_NHH@Z"(i32 noundef %167, i32 noundef %150) #4, !dbg !3085
  br i1 %168, label %169, label %172, !dbg !3085

169:                                              ; preds = %166
  %170 = load i32, ptr %5, align 4, !dbg !3092
  %171 = or i32 %170, 4, !dbg !3092
  store i32 %171, ptr %5, align 4, !dbg !3092
  br label %176, !dbg !3095

172:                                              ; preds = %166
  br label %173, !dbg !3096

173:                                              ; preds = %172
  %174 = load i64, ptr %7, align 8, !dbg !3097
  %175 = add nsw i64 %174, -1, !dbg !3097
  store i64 %175, ptr %7, align 8, !dbg !3097
  br label %128, !dbg !3097, !llvm.loop !3098

176:                                              ; preds = %169, %128
  br label %177, !dbg !3100

177:                                              ; preds = %176, %124
  %178 = load ptr, ptr %4, align 8, !dbg !3101, !nonnull !308, !align !3045
  %179 = getelementptr inbounds i8, ptr %178, i64 0, !dbg !3101
  %180 = load ptr, ptr %179, align 8, !dbg !3101
  %181 = getelementptr inbounds i32, ptr %180, i32 1, !dbg !3101
  %182 = load i32, ptr %181, align 4, !dbg !3101
  %183 = sext i32 %182 to i64, !dbg !3101
  %184 = add nsw i64 0, %183, !dbg !3101
  %185 = getelementptr inbounds i8, ptr %178, i64 %184, !dbg !3101
  %186 = call noundef i64 @"?width@ios_base@std@@QEAA_J_J@Z"(ptr noundef nonnull align 8 dereferenceable(72) %185, i64 noundef 0) #4, !dbg !3101
  br label %165, !dbg !3088

187:                                              ; preds = %165, %52
  %188 = load ptr, ptr %4, align 8, !dbg !3102, !nonnull !308, !align !3045
  %189 = getelementptr inbounds i8, ptr %188, i64 0, !dbg !3102
  %190 = load ptr, ptr %189, align 8, !dbg !3102
  %191 = getelementptr inbounds i32, ptr %190, i32 1, !dbg !3102
  %192 = load i32, ptr %191, align 4, !dbg !3102
  %193 = sext i32 %192 to i64, !dbg !3102
  %194 = add nsw i64 0, %193, !dbg !3102
  %195 = getelementptr inbounds i8, ptr %188, i64 %194, !dbg !3102
  %196 = load i32, ptr %5, align 4, !dbg !3102
  invoke void @"?setstate@?$basic_ios@DU?$char_traits@D@std@@@std@@QEAAXH_N@Z"(ptr noundef nonnull align 8 dereferenceable(96) %195, i32 noundef %196, i1 noundef zeroext false)
          to label %197 unwind label %199, !dbg !3102

197:                                              ; preds = %187
  %198 = load ptr, ptr %4, align 8, !dbg !3103, !nonnull !308, !align !3045
  call void @"??1sentry@?$basic_ostream@DU?$char_traits@D@std@@@std@@QEAA@XZ"(ptr noundef nonnull align 8 dereferenceable(16) %8) #4, !dbg !3104
  ret ptr %198, !dbg !3104

199:                                              ; preds = %187, %153, %151, %46
  %200 = cleanuppad within none [], !dbg !3104
  call void @"??1sentry@?$basic_ostream@DU?$char_traits@D@std@@@std@@QEAA@XZ"(ptr noundef nonnull align 8 dereferenceable(16) %8) #4 [ "funclet"(token %200) ], !dbg !3104
  cleanupret from %200 unwind to caller, !dbg !3104
}

; Function Attrs: mustprogress noinline optnone uwtable
define linkonce_odr dso_local noundef nonnull align 8 dereferenceable(8) ptr @"??6?$basic_ostream@DU?$char_traits@D@std@@@std@@QEAAAEAV01@P6AAEAV01@AEAV01@@Z@Z"(ptr noundef nonnull align 8 dereferenceable(8) %0, ptr noundef %1) #0 comdat align 2 !dbg !3105 {
  %3 = alloca ptr, align 8
  %4 = alloca ptr, align 8
  store ptr %1, ptr %3, align 8
    #dbg_declare(ptr %3, !3113, !DIExpression(), !3114)
  store ptr %0, ptr %4, align 8
    #dbg_declare(ptr %4, !3115, !DIExpression(), !3117)
  %5 = load ptr, ptr %4, align 8
  %6 = load ptr, ptr %3, align 8, !dbg !3118
  %7 = call noundef nonnull align 8 dereferenceable(8) ptr %6(ptr noundef nonnull align 8 dereferenceable(8) %5), !dbg !3118
  ret ptr %7, !dbg !3118
}

; Function Attrs: mustprogress noinline optnone uwtable
define linkonce_odr dso_local noundef nonnull align 8 dereferenceable(8) ptr @"??$endl@DU?$char_traits@D@std@@@std@@YAAEAV?$basic_ostream@DU?$char_traits@D@std@@@0@AEAV10@@Z"(ptr noundef nonnull align 8 dereferenceable(8) %0) #0 comdat !dbg !3119 {
  %2 = alloca ptr, align 8
  store ptr %0, ptr %2, align 8
    #dbg_declare(ptr %2, !3121, !DIExpression(), !3122)
  %3 = load ptr, ptr %2, align 8, !dbg !3123, !nonnull !308, !align !3045
  %4 = load ptr, ptr %2, align 8, !dbg !3123, !nonnull !308, !align !3045
  %5 = getelementptr inbounds i8, ptr %4, i64 0, !dbg !3123
  %6 = load ptr, ptr %5, align 8, !dbg !3123
  %7 = getelementptr inbounds i32, ptr %6, i32 1, !dbg !3123
  %8 = load i32, ptr %7, align 4, !dbg !3123
  %9 = sext i32 %8 to i64, !dbg !3123
  %10 = add nsw i64 0, %9, !dbg !3123
  %11 = getelementptr inbounds i8, ptr %4, i64 %10, !dbg !3123
  %12 = call noundef i8 @"?widen@?$basic_ios@DU?$char_traits@D@std@@@std@@QEBADD@Z"(ptr noundef nonnull align 8 dereferenceable(96) %11, i8 noundef 10), !dbg !3123
  %13 = call noundef nonnull align 8 dereferenceable(8) ptr @"?put@?$basic_ostream@DU?$char_traits@D@std@@@std@@QEAAAEAV12@D@Z"(ptr noundef nonnull align 8 dereferenceable(8) %3, i8 noundef %12), !dbg !3123
  %14 = load ptr, ptr %2, align 8, !dbg !3124, !nonnull !308, !align !3045
  %15 = call noundef nonnull align 8 dereferenceable(8) ptr @"?flush@?$basic_ostream@DU?$char_traits@D@std@@@std@@QEAAAEAV12@XZ"(ptr noundef nonnull align 8 dereferenceable(8) %14), !dbg !3124
  %16 = load ptr, ptr %2, align 8, !dbg !3125, !nonnull !308, !align !3045
  ret ptr %16, !dbg !3125
}

; Function Attrs: mustprogress noinline optnone uwtable
define dso_local void @"?N@@YAXXZ"() #0 !dbg !3126 {
  %1 = call noundef nonnull align 8 dereferenceable(8) ptr @"??$?6U?$char_traits@D@std@@@std@@YAAEAV?$basic_ostream@DU?$char_traits@D@std@@@0@AEAV10@PEBD@Z"(ptr noundef nonnull align 8 dereferenceable(8) @"?cout@std@@3V?$basic_ostream@DU?$char_traits@D@std@@@1@A", ptr noundef @"??_C@_0BC@NGJCOKED@THIS?5FUNCTION?5N?4?5?$AA@"), !dbg !3127
  %2 = call noundef nonnull align 8 dereferenceable(8) ptr @"??6?$basic_ostream@DU?$char_traits@D@std@@@std@@QEAAAEAV01@P6AAEAV01@AEAV01@@Z@Z"(ptr noundef nonnull align 8 dereferenceable(8) %1, ptr noundef @"??$endl@DU?$char_traits@D@std@@@std@@YAAEAV?$basic_ostream@DU?$char_traits@D@std@@@0@AEAV10@@Z"), !dbg !3127
  %3 = call noundef nonnull align 8 dereferenceable(8) ptr @"??$?6U?$char_traits@D@std@@@std@@YAAEAV?$basic_ostream@DU?$char_traits@D@std@@@0@AEAV10@PEBD@Z"(ptr noundef nonnull align 8 dereferenceable(8) @"?cout@std@@3V?$basic_ostream@DU?$char_traits@D@std@@@1@A", ptr noundef @"??_C@_01NANMIPIL@N?$AA@"), !dbg !3128
  %4 = call noundef nonnull align 8 dereferenceable(8) ptr @"??6?$basic_ostream@DU?$char_traits@D@std@@@std@@QEAAAEAV01@P6AAEAV01@AEAV01@@Z@Z"(ptr noundef nonnull align 8 dereferenceable(8) %3, ptr noundef @"??$endl@DU?$char_traits@D@std@@@std@@YAAEAV?$basic_ostream@DU?$char_traits@D@std@@@0@AEAV10@@Z"), !dbg !3128
  ret void, !dbg !3129
}

; Function Attrs: mustprogress noinline optnone uwtable
define dso_local void @"?D@@YAXXZ"() #0 !dbg !3130 {
  %1 = call noundef nonnull align 8 dereferenceable(8) ptr @"??$?6U?$char_traits@D@std@@@std@@YAAEAV?$basic_ostream@DU?$char_traits@D@std@@@0@AEAV10@PEBD@Z"(ptr noundef nonnull align 8 dereferenceable(8) @"?cout@std@@3V?$basic_ostream@DU?$char_traits@D@std@@@1@A", ptr noundef @"??_C@_0BC@LJCPAKCH@THIS?5FUNCTION?5D?4?5?$AA@"), !dbg !3131
  %2 = call noundef nonnull align 8 dereferenceable(8) ptr @"??6?$basic_ostream@DU?$char_traits@D@std@@@std@@QEAAAEAV01@P6AAEAV01@AEAV01@@Z@Z"(ptr noundef nonnull align 8 dereferenceable(8) %1, ptr noundef @"??$endl@DU?$char_traits@D@std@@@std@@YAAEAV?$basic_ostream@DU?$char_traits@D@std@@@0@AEAV10@@Z"), !dbg !3131
  %3 = call noundef nonnull align 8 dereferenceable(8) ptr @"??$?6U?$char_traits@D@std@@@std@@YAAEAV?$basic_ostream@DU?$char_traits@D@std@@@0@AEAV10@PEBD@Z"(ptr noundef nonnull align 8 dereferenceable(8) @"?cout@std@@3V?$basic_ostream@DU?$char_traits@D@std@@@1@A", ptr noundef @"??_C@_01CKDDGHAB@D?$AA@"), !dbg !3132
  %4 = call noundef nonnull align 8 dereferenceable(8) ptr @"??6?$basic_ostream@DU?$char_traits@D@std@@@std@@QEAAAEAV01@P6AAEAV01@AEAV01@@Z@Z"(ptr noundef nonnull align 8 dereferenceable(8) %3, ptr noundef @"??$endl@DU?$char_traits@D@std@@@std@@YAAEAV?$basic_ostream@DU?$char_traits@D@std@@@0@AEAV10@@Z"), !dbg !3132
  call void @"?M@@YAXXZ"(), !dbg !3133
  ret void, !dbg !3134
}

; Function Attrs: mustprogress noinline optnone uwtable
define dso_local void @"?E@@YAXXZ"() #0 !dbg !3135 {
  %1 = call noundef nonnull align 8 dereferenceable(8) ptr @"??$?6U?$char_traits@D@std@@@std@@YAAEAV?$basic_ostream@DU?$char_traits@D@std@@@0@AEAV10@PEBD@Z"(ptr noundef nonnull align 8 dereferenceable(8) @"?cout@std@@3V?$basic_ostream@DU?$char_traits@D@std@@@1@A", ptr noundef @"??_C@_0BC@BJDGNEC@THIS?5FUNCTION?5E?4?5?$AA@"), !dbg !3136
  %2 = call noundef nonnull align 8 dereferenceable(8) ptr @"??6?$basic_ostream@DU?$char_traits@D@std@@@std@@QEAAAEAV01@P6AAEAV01@AEAV01@@Z@Z"(ptr noundef nonnull align 8 dereferenceable(8) %1, ptr noundef @"??$endl@DU?$char_traits@D@std@@@std@@YAAEAV?$basic_ostream@DU?$char_traits@D@std@@@0@AEAV10@@Z"), !dbg !3136
  %3 = call noundef nonnull align 8 dereferenceable(8) ptr @"??$?6U?$char_traits@D@std@@@std@@YAAEAV?$basic_ostream@DU?$char_traits@D@std@@@0@AEAV10@PEBD@Z"(ptr noundef nonnull align 8 dereferenceable(8) @"?cout@std@@3V?$basic_ostream@DU?$char_traits@D@std@@@1@A", ptr noundef @"??_C@_01DDCIFGEA@E?$AA@"), !dbg !3137
  %4 = call noundef nonnull align 8 dereferenceable(8) ptr @"??6?$basic_ostream@DU?$char_traits@D@std@@@std@@QEAAAEAV01@P6AAEAV01@AEAV01@@Z@Z"(ptr noundef nonnull align 8 dereferenceable(8) %3, ptr noundef @"??$endl@DU?$char_traits@D@std@@@std@@YAAEAV?$basic_ostream@DU?$char_traits@D@std@@@0@AEAV10@@Z"), !dbg !3137
  call void @"?N@@YAXXZ"(), !dbg !3138
  ret void, !dbg !3139
}

; Function Attrs: mustprogress noinline optnone uwtable
define dso_local void @"?B@@YAXXZ"() #0 !dbg !3140 {
  %1 = call noundef nonnull align 8 dereferenceable(8) ptr @"??$?6U?$char_traits@D@std@@@std@@YAAEAV?$basic_ostream@DU?$char_traits@D@std@@@0@AEAV10@PEBD@Z"(ptr noundef nonnull align 8 dereferenceable(8) @"?cout@std@@3V?$basic_ostream@DU?$char_traits@D@std@@@1@A", ptr noundef @"??_C@_0BC@JMEEFFPL@THIS?5FUNCTION?5B?4?5?$AA@"), !dbg !3141
  %2 = call noundef nonnull align 8 dereferenceable(8) ptr @"??6?$basic_ostream@DU?$char_traits@D@std@@@std@@QEAAAEAV01@P6AAEAV01@AEAV01@@Z@Z"(ptr noundef nonnull align 8 dereferenceable(8) %1, ptr noundef @"??$endl@DU?$char_traits@D@std@@@std@@YAAEAV?$basic_ostream@DU?$char_traits@D@std@@@0@AEAV10@@Z"), !dbg !3141
  %3 = call noundef nonnull align 8 dereferenceable(8) ptr @"??$?6U?$char_traits@D@std@@@std@@YAAEAV?$basic_ostream@DU?$char_traits@D@std@@@0@AEAV10@PEBD@Z"(ptr noundef nonnull align 8 dereferenceable(8) @"?cout@std@@3V?$basic_ostream@DU?$char_traits@D@std@@@1@A", ptr noundef @"??_C@_01HMGJMAIH@B?$AA@"), !dbg !3142
  %4 = call noundef nonnull align 8 dereferenceable(8) ptr @"??6?$basic_ostream@DU?$char_traits@D@std@@@std@@QEAAAEAV01@P6AAEAV01@AEAV01@@Z@Z"(ptr noundef nonnull align 8 dereferenceable(8) %3, ptr noundef @"??$endl@DU?$char_traits@D@std@@@std@@YAAEAV?$basic_ostream@DU?$char_traits@D@std@@@0@AEAV10@@Z"), !dbg !3142
  call void @"?D@@YAXXZ"(), !dbg !3143
  ret void, !dbg !3144
}

; Function Attrs: mustprogress noinline optnone uwtable
define dso_local void @"?C@@YAXXZ"() #0 !dbg !3145 {
  %1 = call noundef nonnull align 8 dereferenceable(8) ptr @"??$?6U?$char_traits@D@std@@@std@@YAAEAV?$basic_ostream@DU?$char_traits@D@std@@@0@AEAV10@PEBD@Z"(ptr noundef nonnull align 8 dereferenceable(8) @"?cout@std@@3V?$basic_ostream@DU?$char_traits@D@std@@@1@A", ptr noundef @"??_C@_0BC@CEPIDCJO@THIS?5FUNCTION?5C?4?5?$AA@"), !dbg !3146
  %2 = call noundef nonnull align 8 dereferenceable(8) ptr @"??6?$basic_ostream@DU?$char_traits@D@std@@@std@@QEAAAEAV01@P6AAEAV01@AEAV01@@Z@Z"(ptr noundef nonnull align 8 dereferenceable(8) %1, ptr noundef @"??$endl@DU?$char_traits@D@std@@@std@@YAAEAV?$basic_ostream@DU?$char_traits@D@std@@@0@AEAV10@@Z"), !dbg !3146
  %3 = call noundef nonnull align 8 dereferenceable(8) ptr @"??$?6U?$char_traits@D@std@@@std@@YAAEAV?$basic_ostream@DU?$char_traits@D@std@@@0@AEAV10@PEBD@Z"(ptr noundef nonnull align 8 dereferenceable(8) @"?cout@std@@3V?$basic_ostream@DU?$char_traits@D@std@@@1@A", ptr noundef @"??_C@_01GFHCPBMG@C?$AA@"), !dbg !3147
  %4 = call noundef nonnull align 8 dereferenceable(8) ptr @"??6?$basic_ostream@DU?$char_traits@D@std@@@std@@QEAAAEAV01@P6AAEAV01@AEAV01@@Z@Z"(ptr noundef nonnull align 8 dereferenceable(8) %3, ptr noundef @"??$endl@DU?$char_traits@D@std@@@std@@YAAEAV?$basic_ostream@DU?$char_traits@D@std@@@0@AEAV10@@Z"), !dbg !3147
  call void @"?E@@YAXXZ"(), !dbg !3148
  ret void, !dbg !3149
}

; Function Attrs: mustprogress noinline optnone uwtable
define dso_local void @"?A@@YAXXZ"() #0 !dbg !3150 {
  %1 = call noundef nonnull align 8 dereferenceable(8) ptr @"??$?6U?$char_traits@D@std@@@std@@YAAEAV?$basic_ostream@DU?$char_traits@D@std@@@0@AEAV10@PEBD@Z"(ptr noundef nonnull align 8 dereferenceable(8) @"?cout@std@@3V?$basic_ostream@DU?$char_traits@D@std@@@1@A", ptr noundef @"??_C@_0BC@IOPBPKBF@THIS?5FUNCTION?5A?4?5?$AA@"), !dbg !3151
  %2 = call noundef nonnull align 8 dereferenceable(8) ptr @"??6?$basic_ostream@DU?$char_traits@D@std@@@std@@QEAAAEAV01@P6AAEAV01@AEAV01@@Z@Z"(ptr noundef nonnull align 8 dereferenceable(8) %1, ptr noundef @"??$endl@DU?$char_traits@D@std@@@std@@YAAEAV?$basic_ostream@DU?$char_traits@D@std@@@0@AEAV10@@Z"), !dbg !3151
  %3 = call noundef nonnull align 8 dereferenceable(8) ptr @"??$?6U?$char_traits@D@std@@@std@@YAAEAV?$basic_ostream@DU?$char_traits@D@std@@@0@AEAV10@PEBD@Z"(ptr noundef nonnull align 8 dereferenceable(8) @"?cout@std@@3V?$basic_ostream@DU?$char_traits@D@std@@@1@A", ptr noundef @"??_C@_01FHEEJDEE@A?$AA@"), !dbg !3152
  %4 = call noundef nonnull align 8 dereferenceable(8) ptr @"??6?$basic_ostream@DU?$char_traits@D@std@@@std@@QEAAAEAV01@P6AAEAV01@AEAV01@@Z@Z"(ptr noundef nonnull align 8 dereferenceable(8) %3, ptr noundef @"??$endl@DU?$char_traits@D@std@@@std@@YAAEAV?$basic_ostream@DU?$char_traits@D@std@@@0@AEAV10@@Z"), !dbg !3152
  call void @"?B@@YAXXZ"(), !dbg !3153
  call void @"?C@@YAXXZ"(), !dbg !3154
  ret void, !dbg !3155
}

; Function Attrs: mustprogress noinline optnone uwtable
define dso_local void @"?F@@YAXXZ"() #0 !dbg !3156 {
  %1 = call noundef nonnull align 8 dereferenceable(8) ptr @"??$?6U?$char_traits@D@std@@@std@@YAAEAV?$basic_ostream@DU?$char_traits@D@std@@@0@AEAV10@PEBD@Z"(ptr noundef nonnull align 8 dereferenceable(8) @"?cout@std@@3V?$basic_ostream@DU?$char_traits@D@std@@@1@A", ptr noundef @"??_C@_0BC@BDCGMCKM@THIS?5FUNCTION?5F?4?5?$AA@"), !dbg !3157
  %2 = call noundef nonnull align 8 dereferenceable(8) ptr @"??6?$basic_ostream@DU?$char_traits@D@std@@@std@@QEAAAEAV01@P6AAEAV01@AEAV01@@Z@Z"(ptr noundef nonnull align 8 dereferenceable(8) %1, ptr noundef @"??$endl@DU?$char_traits@D@std@@@std@@YAAEAV?$basic_ostream@DU?$char_traits@D@std@@@0@AEAV10@@Z"), !dbg !3157
  %3 = call noundef nonnull align 8 dereferenceable(8) ptr @"??$?6U?$char_traits@D@std@@@std@@YAAEAV?$basic_ostream@DU?$char_traits@D@std@@@0@AEAV10@PEBD@Z"(ptr noundef nonnull align 8 dereferenceable(8) @"?cout@std@@3V?$basic_ostream@DU?$char_traits@D@std@@@1@A", ptr noundef @"??_C@_01BIAFAFID@F?$AA@"), !dbg !3158
  %4 = call noundef nonnull align 8 dereferenceable(8) ptr @"??6?$basic_ostream@DU?$char_traits@D@std@@@std@@QEAAAEAV01@P6AAEAV01@AEAV01@@Z@Z"(ptr noundef nonnull align 8 dereferenceable(8) %3, ptr noundef @"??$endl@DU?$char_traits@D@std@@@std@@YAAEAV?$basic_ostream@DU?$char_traits@D@std@@@0@AEAV10@@Z"), !dbg !3158
  call void @"?A@@YAXXZ"(), !dbg !3159
  ret void, !dbg !3160
}

; Function Attrs: mustprogress noinline optnone uwtable
define dso_local void @"?G@@YAXXZ"() #0 !dbg !3161 {
  %1 = call noundef nonnull align 8 dereferenceable(8) ptr @"??$?6U?$char_traits@D@std@@@std@@YAAEAV?$basic_ostream@DU?$char_traits@D@std@@@0@AEAV10@PEBD@Z"(ptr noundef nonnull align 8 dereferenceable(8) @"?cout@std@@3V?$basic_ostream@DU?$char_traits@D@std@@@1@A", ptr noundef @"??_C@_0BC@KLJKKFMJ@THIS?5FUNCTION?5G?4?5?$AA@"), !dbg !3162
  %2 = call noundef nonnull align 8 dereferenceable(8) ptr @"??6?$basic_ostream@DU?$char_traits@D@std@@@std@@QEAAAEAV01@P6AAEAV01@AEAV01@@Z@Z"(ptr noundef nonnull align 8 dereferenceable(8) %1, ptr noundef @"??$endl@DU?$char_traits@D@std@@@std@@YAAEAV?$basic_ostream@DU?$char_traits@D@std@@@0@AEAV10@@Z"), !dbg !3162
  %3 = call noundef nonnull align 8 dereferenceable(8) ptr @"??$?6U?$char_traits@D@std@@@std@@YAAEAV?$basic_ostream@DU?$char_traits@D@std@@@0@AEAV10@PEBD@Z"(ptr noundef nonnull align 8 dereferenceable(8) @"?cout@std@@3V?$basic_ostream@DU?$char_traits@D@std@@@1@A", ptr noundef @"??_C@_01BBODEMC@G?$AA@"), !dbg !3163
  %4 = call noundef nonnull align 8 dereferenceable(8) ptr @"??6?$basic_ostream@DU?$char_traits@D@std@@@std@@QEAAAEAV01@P6AAEAV01@AEAV01@@Z@Z"(ptr noundef nonnull align 8 dereferenceable(8) %3, ptr noundef @"??$endl@DU?$char_traits@D@std@@@std@@YAAEAV?$basic_ostream@DU?$char_traits@D@std@@@0@AEAV10@@Z"), !dbg !3163
  call void @"?A@@YAXXZ"(), !dbg !3164
  ret void, !dbg !3165
}

; Function Attrs: mustprogress noinline optnone uwtable
define dso_local void @"?H@@YAXXZ"() #0 !dbg !3166 {
  %1 = call noundef nonnull align 8 dereferenceable(8) ptr @"??$?6U?$char_traits@D@std@@@std@@YAAEAV?$basic_ostream@DU?$char_traits@D@std@@@0@AEAV10@PEBD@Z"(ptr noundef nonnull align 8 dereferenceable(8) @"?cout@std@@3V?$basic_ostream@DU?$char_traits@D@std@@@1@A", ptr noundef @"??_C@_0BC@PDPJLFJP@THIS?5FUNCTION?5H?4?5?$AA@"), !dbg !3167
  %2 = call noundef nonnull align 8 dereferenceable(8) ptr @"??6?$basic_ostream@DU?$char_traits@D@std@@@std@@QEAAAEAV01@P6AAEAV01@AEAV01@@Z@Z"(ptr noundef nonnull align 8 dereferenceable(8) %1, ptr noundef @"??$endl@DU?$char_traits@D@std@@@std@@YAAEAV?$basic_ostream@DU?$char_traits@D@std@@@0@AEAV10@@Z"), !dbg !3167
  %3 = call noundef nonnull align 8 dereferenceable(8) ptr @"??$?6U?$char_traits@D@std@@@std@@YAAEAV?$basic_ostream@DU?$char_traits@D@std@@@0@AEAV10@PEBD@Z"(ptr noundef nonnull align 8 dereferenceable(8) @"?cout@std@@3V?$basic_ostream@DU?$char_traits@D@std@@@1@A", ptr noundef @"??_C@_01IGIGCIAN@H?$AA@"), !dbg !3168
  %4 = call noundef nonnull align 8 dereferenceable(8) ptr @"??6?$basic_ostream@DU?$char_traits@D@std@@@std@@QEAAAEAV01@P6AAEAV01@AEAV01@@Z@Z"(ptr noundef nonnull align 8 dereferenceable(8) %3, ptr noundef @"??$endl@DU?$char_traits@D@std@@@std@@YAAEAV?$basic_ostream@DU?$char_traits@D@std@@@0@AEAV10@@Z"), !dbg !3168
  call void @"?F@@YAXXZ"(), !dbg !3169
  ret void, !dbg !3170
}

; Function Attrs: mustprogress noinline optnone uwtable
define dso_local void @"?K@@YAXXZ"() #0 !dbg !3171 {
  %1 = call noundef nonnull align 8 dereferenceable(8) ptr @"??$?6U?$char_traits@D@std@@@std@@YAAEAV?$basic_ostream@DU?$char_traits@D@std@@@0@AEAV10@PEBD@Z"(ptr noundef nonnull align 8 dereferenceable(8) @"?cout@std@@3V?$basic_ostream@DU?$char_traits@D@std@@@1@A", ptr noundef @"??_C@_0BC@OBEMBKHB@THIS?5FUNCTION?5K?4?5?$AA@"), !dbg !3172
  %2 = call noundef nonnull align 8 dereferenceable(8) ptr @"??6?$basic_ostream@DU?$char_traits@D@std@@@std@@QEAAAEAV01@P6AAEAV01@AEAV01@@Z@Z"(ptr noundef nonnull align 8 dereferenceable(8) %1, ptr noundef @"??$endl@DU?$char_traits@D@std@@@std@@YAAEAV?$basic_ostream@DU?$char_traits@D@std@@@0@AEAV10@@Z"), !dbg !3172
  %3 = call noundef nonnull align 8 dereferenceable(8) ptr @"??$?6U?$char_traits@D@std@@@std@@YAAEAV?$basic_ostream@DU?$char_traits@D@std@@@0@AEAV10@PEBD@Z"(ptr noundef nonnull align 8 dereferenceable(8) @"?cout@std@@3V?$basic_ostream@DU?$char_traits@D@std@@@1@A", ptr noundef @"??_C@_01KNKLHLMO@K?$AA@"), !dbg !3173
  %4 = call noundef nonnull align 8 dereferenceable(8) ptr @"??6?$basic_ostream@DU?$char_traits@D@std@@@std@@QEAAAEAV01@P6AAEAV01@AEAV01@@Z@Z"(ptr noundef nonnull align 8 dereferenceable(8) %3, ptr noundef @"??$endl@DU?$char_traits@D@std@@@std@@YAAEAV?$basic_ostream@DU?$char_traits@D@std@@@0@AEAV10@@Z"), !dbg !3173
  call void @"?G@@YAXXZ"(), !dbg !3174
  ret void, !dbg !3175
}

; Function Attrs: mustprogress noinline optnone uwtable
define dso_local void @"?Q@@YAXXZ"() #0 !dbg !3176 {
  %1 = call noundef nonnull align 8 dereferenceable(8) ptr @"??$?6U?$char_traits@D@std@@@std@@YAAEAV?$basic_ostream@DU?$char_traits@D@std@@@0@AEAV10@PEBD@Z"(ptr noundef nonnull align 8 dereferenceable(8) @"?cout@std@@3V?$basic_ostream@DU?$char_traits@D@std@@@1@A", ptr noundef @"??_C@_0BC@NOOIKNIK@THIS?5FUNCTION?5Q?4?5?$AA@"), !dbg !3177
  %2 = call noundef nonnull align 8 dereferenceable(8) ptr @"??6?$basic_ostream@DU?$char_traits@D@std@@@std@@QEAAAEAV01@P6AAEAV01@AEAV01@@Z@Z"(ptr noundef nonnull align 8 dereferenceable(8) %1, ptr noundef @"??$endl@DU?$char_traits@D@std@@@std@@YAAEAV?$basic_ostream@DU?$char_traits@D@std@@@0@AEAV10@@Z"), !dbg !3177
  %3 = call noundef nonnull align 8 dereferenceable(8) ptr @"??$?6U?$char_traits@D@std@@@std@@YAAEAV?$basic_ostream@DU?$char_traits@D@std@@@0@AEAV10@PEBD@Z"(ptr noundef nonnull align 8 dereferenceable(8) @"?cout@std@@3V?$basic_ostream@DU?$char_traits@D@std@@@1@A", ptr noundef @"??_C@_01BNIGIBBF@Q?$AA@"), !dbg !3178
  %4 = call noundef nonnull align 8 dereferenceable(8) ptr @"??6?$basic_ostream@DU?$char_traits@D@std@@@std@@QEAAAEAV01@P6AAEAV01@AEAV01@@Z@Z"(ptr noundef nonnull align 8 dereferenceable(8) %3, ptr noundef @"??$endl@DU?$char_traits@D@std@@@std@@YAAEAV?$basic_ostream@DU?$char_traits@D@std@@@0@AEAV10@@Z"), !dbg !3178
  call void @"?M@@YAXXZ"(), !dbg !3179
  ret void, !dbg !3180
}

; Function Attrs: mustprogress noinline optnone uwtable
define dso_local void @"?T@@YAXXZ"() #0 !dbg !3181 {
  %1 = call noundef nonnull align 8 dereferenceable(8) ptr @"??$?6U?$char_traits@D@std@@@std@@YAAEAV?$basic_ostream@DU?$char_traits@D@std@@@0@AEAV10@PEBD@Z"(ptr noundef nonnull align 8 dereferenceable(8) @"?cout@std@@3V?$basic_ostream@DU?$char_traits@D@std@@@1@A", ptr noundef @"??_C@_0BC@OJDGFNLI@THIS?5FUNCTION?5T?4?5?$AA@"), !dbg !3182
  %2 = call noundef nonnull align 8 dereferenceable(8) ptr @"??6?$basic_ostream@DU?$char_traits@D@std@@@std@@QEAAAEAV01@P6AAEAV01@AEAV01@@Z@Z"(ptr noundef nonnull align 8 dereferenceable(8) %1, ptr noundef @"??$endl@DU?$char_traits@D@std@@@std@@YAAEAV?$basic_ostream@DU?$char_traits@D@std@@@0@AEAV10@@Z"), !dbg !3182
  %3 = call noundef nonnull align 8 dereferenceable(8) ptr @"??$?6U?$char_traits@D@std@@@std@@YAAEAV?$basic_ostream@DU?$char_traits@D@std@@@0@AEAV10@PEBD@Z"(ptr noundef nonnull align 8 dereferenceable(8) @"?cout@std@@3V?$basic_ostream@DU?$char_traits@D@std@@@1@A", ptr noundef @"??_C@_01GAPBHFFA@T?$AA@"), !dbg !3183
  %4 = call noundef nonnull align 8 dereferenceable(8) ptr @"??6?$basic_ostream@DU?$char_traits@D@std@@@std@@QEAAAEAV01@P6AAEAV01@AEAV01@@Z@Z"(ptr noundef nonnull align 8 dereferenceable(8) %3, ptr noundef @"??$endl@DU?$char_traits@D@std@@@std@@YAAEAV?$basic_ostream@DU?$char_traits@D@std@@@0@AEAV10@@Z"), !dbg !3183
  call void @"?N@@YAXXZ"(), !dbg !3184
  ret void, !dbg !3185
}

; Function Attrs: mustprogress noinline norecurse optnone uwtable
define dso_local noundef i32 @main() #1 !dbg !3186 {
  call void @"?A@@YAXXZ"(), !dbg !3187
  call void @"?B@@YAXXZ"(), !dbg !3188
  call void @"?C@@YAXXZ"(), !dbg !3189
  call void @"?D@@YAXXZ"(), !dbg !3190
  call void @"?E@@YAXXZ"(), !dbg !3191
  call void @"?F@@YAXXZ"(), !dbg !3192
  call void @"?G@@YAXXZ"(), !dbg !3193
  call void @"?H@@YAXXZ"(), !dbg !3194
  call void @"?K@@YAXXZ"(), !dbg !3195
  call void @"?Q@@YAXXZ"(), !dbg !3196
  call void @"?T@@YAXXZ"(), !dbg !3197
  call void @"?M@@YAXXZ"(), !dbg !3198
  call void @"?N@@YAXXZ"(), !dbg !3199
  ret i32 0, !dbg !3200
}

; Function Attrs: mustprogress noinline nounwind optnone uwtable
define linkonce_odr dso_local noundef i64 @"?length@?$_Narrow_char_traits@DH@std@@SA_KQEBD@Z"(ptr noundef %0) #2 comdat align 2 !dbg !3201 {
  %2 = alloca ptr, align 8
  store ptr %0, ptr %2, align 8
    #dbg_declare(ptr %2, !3202, !DIExpression(), !3203)
  %3 = load ptr, ptr %2, align 8, !dbg !3204
  %4 = call i64 @strlen(ptr noundef %3) #4, !dbg !3204
  ret i64 %4, !dbg !3204
}

; Function Attrs: mustprogress noinline nounwind optnone uwtable
define linkonce_odr dso_local noundef i64 @"?width@ios_base@std@@QEBA_JXZ"(ptr noundef nonnull align 8 dereferenceable(72) %0) #2 comdat align 2 !dbg !3205 {
  %2 = alloca ptr, align 8
  store ptr %0, ptr %2, align 8
    #dbg_declare(ptr %2, !3211, !DIExpression(), !3213)
  %3 = load ptr, ptr %2, align 8
  %4 = getelementptr inbounds nuw %"class.std::ios_base", ptr %3, i32 0, i32 6, !dbg !3214
  %5 = load i64, ptr %4, align 8, !dbg !3214
  ret i64 %5, !dbg !3214
}

; Function Attrs: mustprogress noinline optnone uwtable
define linkonce_odr dso_local noundef ptr @"??0sentry@?$basic_ostream@DU?$char_traits@D@std@@@std@@QEAA@AEAV12@@Z"(ptr noundef nonnull returned align 8 dereferenceable(16) %0, ptr noundef nonnull align 8 dereferenceable(8) %1) unnamed_addr #0 comdat align 2 personality ptr @__CxxFrameHandler3 !dbg !3215 {
  %3 = alloca ptr, align 8
  %4 = alloca ptr, align 8
  %5 = alloca ptr, align 8
  %6 = alloca ptr, align 8
  store ptr %1, ptr %4, align 8
    #dbg_declare(ptr %4, !3216, !DIExpression(), !3217)
  store ptr %0, ptr %5, align 8
    #dbg_declare(ptr %5, !3218, !DIExpression(), !3220)
  %7 = load ptr, ptr %5, align 8
  store ptr %7, ptr %3, align 8
  %8 = load ptr, ptr %4, align 8, !dbg !3217, !nonnull !308, !align !3045
  %9 = call noundef ptr @"??0_Sentry_base@?$basic_ostream@DU?$char_traits@D@std@@@std@@QEAA@AEAV12@@Z"(ptr noundef nonnull align 8 dereferenceable(8) %7, ptr noundef nonnull align 8 dereferenceable(8) %8), !dbg !3217
  %10 = load ptr, ptr %4, align 8, !dbg !3221, !nonnull !308, !align !3045
  %11 = getelementptr inbounds i8, ptr %10, i64 0, !dbg !3221
  %12 = load ptr, ptr %11, align 8, !dbg !3221
  %13 = getelementptr inbounds i32, ptr %12, i32 1, !dbg !3221
  %14 = load i32, ptr %13, align 4, !dbg !3221
  %15 = sext i32 %14 to i64, !dbg !3221
  %16 = add nsw i64 0, %15, !dbg !3221
  %17 = getelementptr inbounds i8, ptr %10, i64 %16, !dbg !3221
  %18 = call noundef zeroext i1 @"?good@ios_base@std@@QEBA_NXZ"(ptr noundef nonnull align 8 dereferenceable(72) %17) #4, !dbg !3221
  br i1 %18, label %21, label %19, !dbg !3221

19:                                               ; preds = %2
  %20 = getelementptr inbounds nuw %"class.std::basic_ostream<char>::sentry", ptr %7, i32 0, i32 1, !dbg !3223
  store i8 0, ptr %20, align 8, !dbg !3223
  br label %54, !dbg !3226

21:                                               ; preds = %2
    #dbg_declare(ptr %6, !3227, !DIExpression(), !3232)
  %22 = load ptr, ptr %4, align 8, !dbg !3232, !nonnull !308, !align !3045
  %23 = getelementptr inbounds i8, ptr %22, i64 0, !dbg !3232
  %24 = load ptr, ptr %23, align 8, !dbg !3232
  %25 = getelementptr inbounds i32, ptr %24, i32 1, !dbg !3232
  %26 = load i32, ptr %25, align 4, !dbg !3232
  %27 = sext i32 %26 to i64, !dbg !3232
  %28 = add nsw i64 0, %27, !dbg !3232
  %29 = getelementptr inbounds i8, ptr %22, i64 %28, !dbg !3232
  %30 = call noundef ptr @"?tie@?$basic_ios@DU?$char_traits@D@std@@@std@@QEBAPEAV?$basic_ostream@DU?$char_traits@D@std@@@2@XZ"(ptr noundef nonnull align 8 dereferenceable(96) %29) #4, !dbg !3232
  store ptr %30, ptr %6, align 8, !dbg !3232
  %31 = load ptr, ptr %6, align 8, !dbg !3233
  %32 = icmp ne ptr %31, null, !dbg !3233
  br i1 %32, label %33, label %37, !dbg !3233

33:                                               ; preds = %21
  %34 = load ptr, ptr %6, align 8, !dbg !3233
  %35 = load ptr, ptr %4, align 8, !dbg !3233, !nonnull !308, !align !3045
  %36 = icmp eq ptr %34, %35, !dbg !3233
  br i1 %36, label %37, label %39, !dbg !3233

37:                                               ; preds = %33, %21
  %38 = getelementptr inbounds nuw %"class.std::basic_ostream<char>::sentry", ptr %7, i32 0, i32 1, !dbg !3234
  store i8 1, ptr %38, align 8, !dbg !3234
  br label %54, !dbg !3237

39:                                               ; preds = %33
  %40 = load ptr, ptr %6, align 8, !dbg !3238
  %41 = invoke noundef nonnull align 8 dereferenceable(8) ptr @"?flush@?$basic_ostream@DU?$char_traits@D@std@@@std@@QEAAAEAV12@XZ"(ptr noundef nonnull align 8 dereferenceable(8) %40)
          to label %42 unwind label %56, !dbg !3238

42:                                               ; preds = %39
  %43 = load ptr, ptr %4, align 8, !dbg !3239, !nonnull !308, !align !3045
  %44 = getelementptr inbounds i8, ptr %43, i64 0, !dbg !3239
  %45 = load ptr, ptr %44, align 8, !dbg !3239
  %46 = getelementptr inbounds i32, ptr %45, i32 1, !dbg !3239
  %47 = load i32, ptr %46, align 4, !dbg !3239
  %48 = sext i32 %47 to i64, !dbg !3239
  %49 = add nsw i64 0, %48, !dbg !3239
  %50 = getelementptr inbounds i8, ptr %43, i64 %49, !dbg !3239
  %51 = call noundef zeroext i1 @"?good@ios_base@std@@QEBA_NXZ"(ptr noundef nonnull align 8 dereferenceable(72) %50) #4, !dbg !3239
  %52 = getelementptr inbounds nuw %"class.std::basic_ostream<char>::sentry", ptr %7, i32 0, i32 1, !dbg !3239
  %53 = zext i1 %51 to i8, !dbg !3239
  store i8 %53, ptr %52, align 8, !dbg !3239
  br label %54, !dbg !3240

54:                                               ; preds = %42, %37, %19
  %55 = load ptr, ptr %3, align 8, !dbg !3240
  ret ptr %55, !dbg !3240

56:                                               ; preds = %39
  %57 = cleanuppad within none [], !dbg !3241
  call void @"??1_Sentry_base@?$basic_ostream@DU?$char_traits@D@std@@@std@@QEAA@XZ"(ptr noundef nonnull align 8 dereferenceable(8) %7) #4 [ "funclet"(token %57) ], !dbg !3241
  cleanupret from %57 unwind to caller, !dbg !3241
}

; Function Attrs: mustprogress noinline nounwind optnone uwtable
define linkonce_odr dso_local noundef zeroext i1 @"??Bsentry@?$basic_ostream@DU?$char_traits@D@std@@@std@@QEBA_NXZ"(ptr noundef nonnull align 8 dereferenceable(16) %0) #2 comdat align 2 !dbg !3242 {
  %2 = alloca ptr, align 8
  store ptr %0, ptr %2, align 8
    #dbg_declare(ptr %2, !3243, !DIExpression(), !3245)
  %3 = load ptr, ptr %2, align 8
  %4 = getelementptr inbounds nuw %"class.std::basic_ostream<char>::sentry", ptr %3, i32 0, i32 1, !dbg !3246
  %5 = load i8, ptr %4, align 8, !dbg !3246
  %6 = trunc i8 %5 to i1, !dbg !3246
  ret i1 %6, !dbg !3246
}

declare dso_local i32 @__CxxFrameHandler3(...)

; Function Attrs: mustprogress noinline nounwind optnone uwtable
define linkonce_odr dso_local noundef i32 @"?flags@ios_base@std@@QEBAHXZ"(ptr noundef nonnull align 8 dereferenceable(72) %0) #2 comdat align 2 !dbg !3247 {
  %2 = alloca ptr, align 8
  store ptr %0, ptr %2, align 8
    #dbg_declare(ptr %2, !3252, !DIExpression(), !3253)
  %3 = load ptr, ptr %2, align 8
  %4 = getelementptr inbounds nuw %"class.std::ios_base", ptr %3, i32 0, i32 4, !dbg !3254
  %5 = load i32, ptr %4, align 8, !dbg !3254
  ret i32 %5, !dbg !3254
}

; Function Attrs: mustprogress noinline nounwind optnone uwtable
define linkonce_odr dso_local noundef zeroext i1 @"?eq_int_type@?$_Narrow_char_traits@DH@std@@SA_NHH@Z"(i32 noundef %0, i32 noundef %1) #2 comdat align 2 !dbg !3255 {
  %3 = alloca i32, align 4
  %4 = alloca i32, align 4
  store i32 %1, ptr %3, align 4
    #dbg_declare(ptr %3, !3256, !DIExpression(), !3257)
  store i32 %0, ptr %4, align 4
    #dbg_declare(ptr %4, !3258, !DIExpression(), !3257)
  %5 = load i32, ptr %4, align 4, !dbg !3259
  %6 = load i32, ptr %3, align 4, !dbg !3259
  %7 = icmp eq i32 %5, %6, !dbg !3259
  ret i1 %7, !dbg !3259
}

; Function Attrs: mustprogress noinline nounwind optnone uwtable
define linkonce_odr dso_local noundef ptr @"?rdbuf@?$basic_ios@DU?$char_traits@D@std@@@std@@QEBAPEAV?$basic_streambuf@DU?$char_traits@D@std@@@2@XZ"(ptr noundef nonnull align 8 dereferenceable(96) %0) #2 comdat align 2 !dbg !3260 {
  %2 = alloca ptr, align 8
  store ptr %0, ptr %2, align 8
    #dbg_declare(ptr %2, !3270, !DIExpression(), !3272)
  %3 = load ptr, ptr %2, align 8
  %4 = getelementptr inbounds nuw %"class.std::basic_ios", ptr %3, i32 0, i32 1, !dbg !3273
  %5 = load ptr, ptr %4, align 8, !dbg !3273
  ret ptr %5, !dbg !3273
}

; Function Attrs: mustprogress noinline optnone uwtable
define linkonce_odr dso_local noundef i32 @"?sputc@?$basic_streambuf@DU?$char_traits@D@std@@@std@@QEAAHD@Z"(ptr noundef nonnull align 8 dereferenceable(104) %0, i8 noundef %1) #0 comdat align 2 !dbg !3274 {
  %3 = alloca i8, align 1
  %4 = alloca ptr, align 8
  store i8 %1, ptr %3, align 1
    #dbg_declare(ptr %3, !3280, !DIExpression(), !3281)
  store ptr %0, ptr %4, align 8
    #dbg_declare(ptr %4, !3282, !DIExpression(), !3284)
  %5 = load ptr, ptr %4, align 8
  %6 = call noundef i64 @"?_Pnavail@?$basic_streambuf@DU?$char_traits@D@std@@@std@@IEBA_JXZ"(ptr noundef nonnull align 8 dereferenceable(104) %5) #4, !dbg !3285
  %7 = icmp slt i64 0, %6, !dbg !3285
  br i1 %7, label %8, label %12, !dbg !3285

8:                                                ; preds = %2
  %9 = load i8, ptr %3, align 1, !dbg !3285
  %10 = call noundef ptr @"?_Pninc@?$basic_streambuf@DU?$char_traits@D@std@@@std@@IEAAPEADXZ"(ptr noundef nonnull align 8 dereferenceable(104) %5) #4, !dbg !3285
  store i8 %9, ptr %10, align 1, !dbg !3285
  %11 = call noundef i32 @"?to_int_type@?$_Narrow_char_traits@DH@std@@SAHD@Z"(i8 noundef %9) #4, !dbg !3285
  br label %19, !dbg !3285

12:                                               ; preds = %2
  %13 = load i8, ptr %3, align 1, !dbg !3285
  %14 = call noundef i32 @"?to_int_type@?$_Narrow_char_traits@DH@std@@SAHD@Z"(i8 noundef %13) #4, !dbg !3285
  %15 = load ptr, ptr %5, align 8, !dbg !3285
  %16 = getelementptr inbounds ptr, ptr %15, i64 3, !dbg !3285
  %17 = load ptr, ptr %16, align 8, !dbg !3285
  %18 = call noundef i32 %17(ptr noundef nonnull align 8 dereferenceable(104) %5, i32 noundef %14), !dbg !3285
  br label %19, !dbg !3285

19:                                               ; preds = %12, %8
  %20 = phi i32 [ %11, %8 ], [ %18, %12 ], !dbg !3285
  ret i32 %20, !dbg !3285
}

; Function Attrs: mustprogress noinline nounwind optnone uwtable
define linkonce_odr dso_local noundef i8 @"?fill@?$basic_ios@DU?$char_traits@D@std@@@std@@QEBADXZ"(ptr noundef nonnull align 8 dereferenceable(96) %0) #2 comdat align 2 !dbg !3286 {
  %2 = alloca ptr, align 8
  store ptr %0, ptr %2, align 8
    #dbg_declare(ptr %2, !3290, !DIExpression(), !3291)
  %3 = load ptr, ptr %2, align 8
  %4 = getelementptr inbounds nuw %"class.std::basic_ios", ptr %3, i32 0, i32 3, !dbg !3292
  %5 = load i8, ptr %4, align 8, !dbg !3292
  ret i8 %5, !dbg !3292
}

; Function Attrs: mustprogress noinline nounwind optnone uwtable
define linkonce_odr dso_local noundef i32 @"?eof@?$_Narrow_char_traits@DH@std@@SAHXZ"() #2 comdat align 2 !dbg !3293 {
  ret i32 -1, !dbg !3294
}

; Function Attrs: mustprogress noinline optnone uwtable
define linkonce_odr dso_local noundef i64 @"?sputn@?$basic_streambuf@DU?$char_traits@D@std@@@std@@QEAA_JPEBD_J@Z"(ptr noundef nonnull align 8 dereferenceable(104) %0, ptr noundef %1, i64 noundef %2) #0 comdat align 2 !dbg !3295 {
  %4 = alloca i64, align 8
  %5 = alloca ptr, align 8
  %6 = alloca ptr, align 8
  store i64 %2, ptr %4, align 8
    #dbg_declare(ptr %4, !3299, !DIExpression(), !3300)
  store ptr %1, ptr %5, align 8
    #dbg_declare(ptr %5, !3301, !DIExpression(), !3302)
  store ptr %0, ptr %6, align 8
    #dbg_declare(ptr %6, !3303, !DIExpression(), !3304)
  %7 = load ptr, ptr %6, align 8
  %8 = load i64, ptr %4, align 8, !dbg !3305
  %9 = load ptr, ptr %5, align 8, !dbg !3305
  %10 = load ptr, ptr %7, align 8, !dbg !3305
  %11 = getelementptr inbounds ptr, ptr %10, i64 9, !dbg !3305
  %12 = load ptr, ptr %11, align 8, !dbg !3305
  %13 = call noundef i64 %12(ptr noundef nonnull align 8 dereferenceable(104) %7, ptr noundef %9, i64 noundef %8), !dbg !3305
  ret i64 %13, !dbg !3305
}

; Function Attrs: mustprogress noinline nounwind optnone uwtable
define linkonce_odr dso_local noundef i64 @"?width@ios_base@std@@QEAA_J_J@Z"(ptr noundef nonnull align 8 dereferenceable(72) %0, i64 noundef %1) #2 comdat align 2 !dbg !3306 {
  %3 = alloca i64, align 8
  %4 = alloca ptr, align 8
  %5 = alloca i64, align 8
  store i64 %1, ptr %3, align 8
    #dbg_declare(ptr %3, !3311, !DIExpression(), !3312)
  store ptr %0, ptr %4, align 8
    #dbg_declare(ptr %4, !3313, !DIExpression(), !3315)
  %6 = load ptr, ptr %4, align 8
    #dbg_declare(ptr %5, !3316, !DIExpression(), !3318)
  %7 = getelementptr inbounds nuw %"class.std::ios_base", ptr %6, i32 0, i32 6, !dbg !3318
  %8 = load i64, ptr %7, align 8, !dbg !3318
  store i64 %8, ptr %5, align 8, !dbg !3318
  %9 = load i64, ptr %3, align 8, !dbg !3319
  %10 = getelementptr inbounds nuw %"class.std::ios_base", ptr %6, i32 0, i32 6, !dbg !3319
  store i64 %9, ptr %10, align 8, !dbg !3319
  %11 = load i64, ptr %5, align 8, !dbg !3320
  ret i64 %11, !dbg !3320
}

; Function Attrs: mustprogress noinline optnone uwtable
define linkonce_odr dso_local void @"?setstate@?$basic_ios@DU?$char_traits@D@std@@@std@@QEAAXH_N@Z"(ptr noundef nonnull align 8 dereferenceable(96) %0, i32 noundef %1, i1 noundef zeroext %2) #0 comdat align 2 !dbg !3321 {
  %4 = alloca i8, align 1
  %5 = alloca i32, align 4
  %6 = alloca ptr, align 8
  %7 = zext i1 %2 to i8
  store i8 %7, ptr %4, align 1
    #dbg_declare(ptr %4, !3326, !DIExpression(), !3327)
  store i32 %1, ptr %5, align 4
    #dbg_declare(ptr %5, !3328, !DIExpression(), !3327)
  store ptr %0, ptr %6, align 8
    #dbg_declare(ptr %6, !3329, !DIExpression(), !3331)
  %8 = load ptr, ptr %6, align 8
  %9 = load i8, ptr %4, align 1, !dbg !3332
  %10 = trunc i8 %9 to i1, !dbg !3332
  %11 = call noundef i32 @"?rdstate@ios_base@std@@QEBAHXZ"(ptr noundef nonnull align 8 dereferenceable(72) %8) #4, !dbg !3332
  %12 = load i32, ptr %5, align 4, !dbg !3332
  %13 = or i32 %11, %12, !dbg !3332
  call void @"?clear@?$basic_ios@DU?$char_traits@D@std@@@std@@QEAAXH_N@Z"(ptr noundef nonnull align 8 dereferenceable(96) %8, i32 noundef %13, i1 noundef zeroext %10), !dbg !3332
  ret void, !dbg !3333
}

; Function Attrs: mustprogress noinline nounwind optnone uwtable
define linkonce_odr dso_local void @"??1sentry@?$basic_ostream@DU?$char_traits@D@std@@@std@@QEAA@XZ"(ptr noundef nonnull align 8 dereferenceable(16) %0) unnamed_addr #2 comdat align 2 !dbg !3334 {
  %2 = alloca ptr, align 8
  %3 = alloca i8, align 1
  store ptr %0, ptr %2, align 8
    #dbg_declare(ptr %2, !3335, !DIExpression(), !3336)
  %4 = load ptr, ptr %2, align 8
    #dbg_declare(ptr %3, !3337, !DIExpression(), !3339)
  %5 = call noundef zeroext i1 @"?uncaught_exception@std@@YA_NXZ"() #4, !dbg !3339
  %6 = xor i1 %5, true, !dbg !3339
  %7 = zext i1 %6 to i8, !dbg !3339
  store i8 %7, ptr %3, align 1, !dbg !3339
  %8 = load i8, ptr %3, align 1, !dbg !3340
  %9 = trunc i8 %8 to i1, !dbg !3340
  br i1 %9, label %10, label %13, !dbg !3340

10:                                               ; preds = %1
  %11 = getelementptr inbounds nuw %"class.std::basic_ostream<char>::_Sentry_base", ptr %4, i32 0, i32 0, !dbg !3341
  %12 = load ptr, ptr %11, align 8, !dbg !3341, !nonnull !308, !align !3045
  call void @"?_Osfx@?$basic_ostream@DU?$char_traits@D@std@@@std@@QEAAXXZ"(ptr noundef nonnull align 8 dereferenceable(8) %12) #4, !dbg !3341
  br label %13, !dbg !3344

13:                                               ; preds = %10, %1
  call void @"??1_Sentry_base@?$basic_ostream@DU?$char_traits@D@std@@@std@@QEAA@XZ"(ptr noundef nonnull align 8 dereferenceable(8) %4) #4, !dbg !3345
  ret void, !dbg !3346
}

; Function Attrs: nounwind
declare dso_local i64 @strlen(ptr noundef) #3

; Function Attrs: mustprogress noinline optnone uwtable
define linkonce_odr dso_local noundef ptr @"??0_Sentry_base@?$basic_ostream@DU?$char_traits@D@std@@@std@@QEAA@AEAV12@@Z"(ptr noundef nonnull returned align 8 dereferenceable(8) %0, ptr noundef nonnull align 8 dereferenceable(8) %1) unnamed_addr #0 comdat align 2 !dbg !3347 {
  %3 = alloca ptr, align 8
  %4 = alloca ptr, align 8
  %5 = alloca ptr, align 8
  %6 = alloca ptr, align 8
  store ptr %1, ptr %4, align 8
    #dbg_declare(ptr %4, !3348, !DIExpression(), !3349)
  store ptr %0, ptr %5, align 8
    #dbg_declare(ptr %5, !3350, !DIExpression(), !3352)
  %7 = load ptr, ptr %5, align 8
  store ptr %7, ptr %3, align 8
  %8 = getelementptr inbounds nuw %"class.std::basic_ostream<char>::_Sentry_base", ptr %7, i32 0, i32 0, !dbg !3349
  %9 = load ptr, ptr %4, align 8, !dbg !3349, !nonnull !308, !align !3045
  store ptr %9, ptr %8, align 8, !dbg !3349
    #dbg_declare(ptr %6, !3353, !DIExpression(), !3356)
  %10 = getelementptr inbounds nuw %"class.std::basic_ostream<char>::_Sentry_base", ptr %7, i32 0, i32 0, !dbg !3356
  %11 = load ptr, ptr %10, align 8, !dbg !3356, !nonnull !308, !align !3045
  %12 = getelementptr inbounds i8, ptr %11, i64 0, !dbg !3356
  %13 = load ptr, ptr %12, align 8, !dbg !3356
  %14 = getelementptr inbounds i32, ptr %13, i32 1, !dbg !3356
  %15 = load i32, ptr %14, align 4, !dbg !3356
  %16 = sext i32 %15 to i64, !dbg !3356
  %17 = add nsw i64 0, %16, !dbg !3356
  %18 = getelementptr inbounds i8, ptr %11, i64 %17, !dbg !3356
  %19 = call noundef ptr @"?rdbuf@?$basic_ios@DU?$char_traits@D@std@@@std@@QEBAPEAV?$basic_streambuf@DU?$char_traits@D@std@@@2@XZ"(ptr noundef nonnull align 8 dereferenceable(96) %18) #4, !dbg !3356
  store ptr %19, ptr %6, align 8, !dbg !3356
  %20 = load ptr, ptr %6, align 8, !dbg !3357
  %21 = icmp ne ptr %20, null, !dbg !3357
  br i1 %21, label %22, label %27, !dbg !3357

22:                                               ; preds = %2
  %23 = load ptr, ptr %6, align 8, !dbg !3358
  %24 = load ptr, ptr %23, align 8, !dbg !3358
  %25 = getelementptr inbounds ptr, ptr %24, i64 1, !dbg !3358
  %26 = load ptr, ptr %25, align 8, !dbg !3358
  call void %26(ptr noundef nonnull align 8 dereferenceable(104) %23), !dbg !3358
  br label %27, !dbg !3361

27:                                               ; preds = %22, %2
  %28 = load ptr, ptr %3, align 8, !dbg !3362
  ret ptr %28, !dbg !3362
}

; Function Attrs: mustprogress noinline nounwind optnone uwtable
define linkonce_odr dso_local noundef zeroext i1 @"?good@ios_base@std@@QEBA_NXZ"(ptr noundef nonnull align 8 dereferenceable(72) %0) #2 comdat align 2 !dbg !3363 {
  %2 = alloca ptr, align 8
  store ptr %0, ptr %2, align 8
    #dbg_declare(ptr %2, !3367, !DIExpression(), !3368)
  %3 = load ptr, ptr %2, align 8
  %4 = call noundef i32 @"?rdstate@ios_base@std@@QEBAHXZ"(ptr noundef nonnull align 8 dereferenceable(72) %3) #4, !dbg !3369
  %5 = icmp eq i32 %4, 0, !dbg !3369
  ret i1 %5, !dbg !3369
}

; Function Attrs: mustprogress noinline nounwind optnone uwtable
define linkonce_odr dso_local noundef ptr @"?tie@?$basic_ios@DU?$char_traits@D@std@@@std@@QEBAPEAV?$basic_ostream@DU?$char_traits@D@std@@@2@XZ"(ptr noundef nonnull align 8 dereferenceable(96) %0) #2 comdat align 2 !dbg !3370 {
  %2 = alloca ptr, align 8
  store ptr %0, ptr %2, align 8
    #dbg_declare(ptr %2, !3374, !DIExpression(), !3375)
  %3 = load ptr, ptr %2, align 8
  %4 = getelementptr inbounds nuw %"class.std::basic_ios", ptr %3, i32 0, i32 2, !dbg !3376
  %5 = load ptr, ptr %4, align 8, !dbg !3376
  ret ptr %5, !dbg !3376
}

; Function Attrs: mustprogress noinline optnone uwtable
define linkonce_odr dso_local noundef nonnull align 8 dereferenceable(8) ptr @"?flush@?$basic_ostream@DU?$char_traits@D@std@@@std@@QEAAAEAV12@XZ"(ptr noundef nonnull align 8 dereferenceable(8) %0) #0 comdat align 2 personality ptr @__CxxFrameHandler3 !dbg !3377 {
  %2 = alloca ptr, align 8
  %3 = alloca ptr, align 8
  %4 = alloca %"class.std::basic_ostream<char>::sentry", align 8
  %5 = alloca i32, align 4
  store ptr %0, ptr %2, align 8
    #dbg_declare(ptr %2, !3381, !DIExpression(), !3382)
  %6 = load ptr, ptr %2, align 8
    #dbg_declare(ptr %3, !3383, !DIExpression(), !3384)
  %7 = getelementptr inbounds i8, ptr %6, i64 0, !dbg !3384
  %8 = load ptr, ptr %7, align 8, !dbg !3384
  %9 = getelementptr inbounds i32, ptr %8, i32 1, !dbg !3384
  %10 = load i32, ptr %9, align 4, !dbg !3384
  %11 = sext i32 %10 to i64, !dbg !3384
  %12 = add nsw i64 0, %11, !dbg !3384
  %13 = getelementptr inbounds i8, ptr %6, i64 %12, !dbg !3384
  %14 = call noundef ptr @"?rdbuf@?$basic_ios@DU?$char_traits@D@std@@@std@@QEBAPEAV?$basic_streambuf@DU?$char_traits@D@std@@@2@XZ"(ptr noundef nonnull align 8 dereferenceable(96) %13) #4, !dbg !3384
  store ptr %14, ptr %3, align 8, !dbg !3384
  %15 = load ptr, ptr %3, align 8, !dbg !3385
  %16 = icmp ne ptr %15, null, !dbg !3385
  br i1 %16, label %17, label %56, !dbg !3385

17:                                               ; preds = %1
    #dbg_declare(ptr %4, !3386, !DIExpression(), !3389)
  %18 = call noundef ptr @"??0sentry@?$basic_ostream@DU?$char_traits@D@std@@@std@@QEAA@AEAV12@@Z"(ptr noundef nonnull align 8 dereferenceable(16) %4, ptr noundef nonnull align 8 dereferenceable(8) %6), !dbg !3389
  %19 = invoke noundef zeroext i1 @"??Bsentry@?$basic_ostream@DU?$char_traits@D@std@@@std@@QEBA_NXZ"(ptr noundef nonnull align 8 dereferenceable(16) %4)
          to label %20 unwind label %54, !dbg !3390

20:                                               ; preds = %17
  br i1 %19, label %21, label %53, !dbg !3390

21:                                               ; preds = %20
    #dbg_declare(ptr %5, !3391, !DIExpression(), !3394)
  store i32 0, ptr %5, align 4, !dbg !3394
  %22 = load ptr, ptr %3, align 8, !dbg !3395
  %23 = invoke noundef i32 @"?pubsync@?$basic_streambuf@DU?$char_traits@D@std@@@std@@QEAAHXZ"(ptr noundef nonnull align 8 dereferenceable(104) %22)
          to label %47 unwind label %24, !dbg !3395

24:                                               ; preds = %21
  %25 = catchswitch within none [label %26] unwind label %54, !dbg !3397

26:                                               ; preds = %24
  %27 = catchpad within %25 [ptr null, i32 64, ptr null], !dbg !3397
  %28 = getelementptr inbounds i8, ptr %6, i64 0, !dbg !3398
  %29 = load ptr, ptr %28, align 8, !dbg !3398
  %30 = getelementptr inbounds i32, ptr %29, i32 1, !dbg !3398
  %31 = load i32, ptr %30, align 4, !dbg !3398
  %32 = sext i32 %31 to i64, !dbg !3398
  %33 = add nsw i64 0, %32, !dbg !3398
  %34 = getelementptr inbounds i8, ptr %6, i64 %33, !dbg !3398
  invoke void @"?setstate@?$basic_ios@DU?$char_traits@D@std@@@std@@QEAAXH_N@Z"(ptr noundef nonnull align 8 dereferenceable(96) %34, i32 noundef 4, i1 noundef zeroext true) [ "funclet"(token %27) ]
          to label %35 unwind label %54, !dbg !3398

35:                                               ; preds = %26
  catchret from %27 to label %36, !dbg !3398

36:                                               ; preds = %35
  br label %37, !dbg !3398

37:                                               ; preds = %36, %52
  %38 = getelementptr inbounds i8, ptr %6, i64 0, !dbg !3400
  %39 = load ptr, ptr %38, align 8, !dbg !3400
  %40 = getelementptr inbounds i32, ptr %39, i32 1, !dbg !3400
  %41 = load i32, ptr %40, align 4, !dbg !3400
  %42 = sext i32 %41 to i64, !dbg !3400
  %43 = add nsw i64 0, %42, !dbg !3400
  %44 = getelementptr inbounds i8, ptr %6, i64 %43, !dbg !3400
  %45 = load i32, ptr %5, align 4, !dbg !3400
  invoke void @"?setstate@?$basic_ios@DU?$char_traits@D@std@@@std@@QEAAXH_N@Z"(ptr noundef nonnull align 8 dereferenceable(96) %44, i32 noundef %45, i1 noundef zeroext false)
          to label %46 unwind label %54, !dbg !3400

46:                                               ; preds = %37
  br label %53, !dbg !3401

47:                                               ; preds = %21
  %48 = icmp eq i32 %23, -1, !dbg !3395
  br i1 %48, label %49, label %52, !dbg !3395

49:                                               ; preds = %47
  %50 = load i32, ptr %5, align 4, !dbg !3402
  %51 = or i32 %50, 4, !dbg !3402
  store i32 %51, ptr %5, align 4, !dbg !3402
  br label %52, !dbg !3405

52:                                               ; preds = %49, %47
  br label %37, !dbg !3397

53:                                               ; preds = %46, %20
  call void @"??1sentry@?$basic_ostream@DU?$char_traits@D@std@@@std@@QEAA@XZ"(ptr noundef nonnull align 8 dereferenceable(16) %4) #4, !dbg !3406
  br label %56, !dbg !3406

54:                                               ; preds = %37, %26, %24, %17
  %55 = cleanuppad within none [], !dbg !3406
  call void @"??1sentry@?$basic_ostream@DU?$char_traits@D@std@@@std@@QEAA@XZ"(ptr noundef nonnull align 8 dereferenceable(16) %4) #4 [ "funclet"(token %55) ], !dbg !3406
  cleanupret from %55 unwind to caller, !dbg !3406

56:                                               ; preds = %53, %1
  ret ptr %6, !dbg !3407
}

; Function Attrs: mustprogress noinline nounwind optnone uwtable
define linkonce_odr dso_local void @"??1_Sentry_base@?$basic_ostream@DU?$char_traits@D@std@@@std@@QEAA@XZ"(ptr noundef nonnull align 8 dereferenceable(8) %0) unnamed_addr #2 comdat align 2 personality ptr @__CxxFrameHandler3 !dbg !3408 {
  %2 = alloca ptr, align 8
  %3 = alloca ptr, align 8
  store ptr %0, ptr %2, align 8
    #dbg_declare(ptr %2, !3409, !DIExpression(), !3410)
  %4 = load ptr, ptr %2, align 8
    #dbg_declare(ptr %3, !3411, !DIExpression(), !3413)
  %5 = getelementptr inbounds nuw %"class.std::basic_ostream<char>::_Sentry_base", ptr %4, i32 0, i32 0, !dbg !3413
  %6 = load ptr, ptr %5, align 8, !dbg !3413, !nonnull !308, !align !3045
  %7 = getelementptr inbounds i8, ptr %6, i64 0, !dbg !3413
  %8 = load ptr, ptr %7, align 8, !dbg !3413
  %9 = getelementptr inbounds i32, ptr %8, i32 1, !dbg !3413
  %10 = load i32, ptr %9, align 4, !dbg !3413
  %11 = sext i32 %10 to i64, !dbg !3413
  %12 = add nsw i64 0, %11, !dbg !3413
  %13 = getelementptr inbounds i8, ptr %6, i64 %12, !dbg !3413
  %14 = call noundef ptr @"?rdbuf@?$basic_ios@DU?$char_traits@D@std@@@std@@QEBAPEAV?$basic_streambuf@DU?$char_traits@D@std@@@2@XZ"(ptr noundef nonnull align 8 dereferenceable(96) %13) #4, !dbg !3413
  store ptr %14, ptr %3, align 8, !dbg !3413
  %15 = load ptr, ptr %3, align 8, !dbg !3414
  %16 = icmp ne ptr %15, null, !dbg !3414
  br i1 %16, label %17, label %23, !dbg !3414

17:                                               ; preds = %1
  %18 = load ptr, ptr %3, align 8, !dbg !3415
  %19 = load ptr, ptr %18, align 8, !dbg !3415
  %20 = getelementptr inbounds ptr, ptr %19, i64 2, !dbg !3415
  %21 = load ptr, ptr %20, align 8, !dbg !3415
  invoke void %21(ptr noundef nonnull align 8 dereferenceable(104) %18)
          to label %22 unwind label %24, !dbg !3415

22:                                               ; preds = %17
  br label %23, !dbg !3418

23:                                               ; preds = %22, %1
  ret void, !dbg !3419

24:                                               ; preds = %17
  %25 = cleanuppad within none [], !dbg !3415
  call void @__std_terminate() #14 [ "funclet"(token %25) ], !dbg !3415
  unreachable, !dbg !3415
}

; Function Attrs: mustprogress noinline nounwind optnone uwtable
define linkonce_odr dso_local noundef i32 @"?rdstate@ios_base@std@@QEBAHXZ"(ptr noundef nonnull align 8 dereferenceable(72) %0) #2 comdat align 2 !dbg !3420 {
  %2 = alloca ptr, align 8
  store ptr %0, ptr %2, align 8
    #dbg_declare(ptr %2, !3424, !DIExpression(), !3425)
  %3 = load ptr, ptr %2, align 8
  %4 = getelementptr inbounds nuw %"class.std::ios_base", ptr %3, i32 0, i32 2, !dbg !3426
  %5 = load i32, ptr %4, align 8, !dbg !3426
  ret i32 %5, !dbg !3426
}

; Function Attrs: mustprogress noinline optnone uwtable
define linkonce_odr dso_local noundef i32 @"?pubsync@?$basic_streambuf@DU?$char_traits@D@std@@@std@@QEAAHXZ"(ptr noundef nonnull align 8 dereferenceable(104) %0) #0 comdat align 2 !dbg !3427 {
  %2 = alloca ptr, align 8
  store ptr %0, ptr %2, align 8
    #dbg_declare(ptr %2, !3431, !DIExpression(), !3432)
  %3 = load ptr, ptr %2, align 8
  %4 = load ptr, ptr %3, align 8, !dbg !3433
  %5 = getelementptr inbounds ptr, ptr %4, i64 13, !dbg !3433
  %6 = load ptr, ptr %5, align 8, !dbg !3433
  %7 = call noundef i32 %6(ptr noundef nonnull align 8 dereferenceable(104) %3), !dbg !3433
  ret i32 %7, !dbg !3433
}

declare dso_local void @__std_terminate()

; Function Attrs: mustprogress noinline nounwind optnone uwtable
define linkonce_odr dso_local noundef i64 @"?_Pnavail@?$basic_streambuf@DU?$char_traits@D@std@@@std@@IEBA_JXZ"(ptr noundef nonnull align 8 dereferenceable(104) %0) #2 comdat align 2 !dbg !3434 {
  %2 = alloca ptr, align 8
  store ptr %0, ptr %2, align 8
    #dbg_declare(ptr %2, !3440, !DIExpression(), !3442)
  %3 = load ptr, ptr %2, align 8
  %4 = getelementptr inbounds nuw %"class.std::basic_streambuf", ptr %3, i32 0, i32 8, !dbg !3443
  %5 = load ptr, ptr %4, align 8, !dbg !3443
  %6 = load ptr, ptr %5, align 8, !dbg !3443
  %7 = icmp ne ptr %6, null, !dbg !3443
  br i1 %7, label %8, label %12, !dbg !3443

8:                                                ; preds = %1
  %9 = getelementptr inbounds nuw %"class.std::basic_streambuf", ptr %3, i32 0, i32 12, !dbg !3443
  %10 = load ptr, ptr %9, align 8, !dbg !3443
  %11 = load i32, ptr %10, align 4, !dbg !3443
  br label %13, !dbg !3443

12:                                               ; preds = %1
  br label %13, !dbg !3443

13:                                               ; preds = %12, %8
  %14 = phi i32 [ %11, %8 ], [ 0, %12 ], !dbg !3443
  %15 = sext i32 %14 to i64, !dbg !3443
  ret i64 %15, !dbg !3443
}

; Function Attrs: mustprogress noinline nounwind optnone uwtable
define linkonce_odr dso_local noundef i32 @"?to_int_type@?$_Narrow_char_traits@DH@std@@SAHD@Z"(i8 noundef %0) #2 comdat align 2 !dbg !3444 {
  %2 = alloca i8, align 1
  store i8 %0, ptr %2, align 1
    #dbg_declare(ptr %2, !3445, !DIExpression(), !3446)
  %3 = load i8, ptr %2, align 1, !dbg !3447
  %4 = zext i8 %3 to i32, !dbg !3447
  ret i32 %4, !dbg !3447
}

; Function Attrs: mustprogress noinline nounwind optnone uwtable
define linkonce_odr dso_local noundef ptr @"?_Pninc@?$basic_streambuf@DU?$char_traits@D@std@@@std@@IEAAPEADXZ"(ptr noundef nonnull align 8 dereferenceable(104) %0) #2 comdat align 2 !dbg !3448 {
  %2 = alloca ptr, align 8
  store ptr %0, ptr %2, align 8
    #dbg_declare(ptr %2, !3452, !DIExpression(), !3453)
  %3 = load ptr, ptr %2, align 8
  %4 = getelementptr inbounds nuw %"class.std::basic_streambuf", ptr %3, i32 0, i32 12, !dbg !3454
  %5 = load ptr, ptr %4, align 8, !dbg !3454
  %6 = load i32, ptr %5, align 4, !dbg !3454
  %7 = add nsw i32 %6, -1, !dbg !3454
  store i32 %7, ptr %5, align 4, !dbg !3454
  %8 = getelementptr inbounds nuw %"class.std::basic_streambuf", ptr %3, i32 0, i32 8, !dbg !3455
  %9 = load ptr, ptr %8, align 8, !dbg !3455
  %10 = load ptr, ptr %9, align 8, !dbg !3455
  %11 = getelementptr inbounds nuw i8, ptr %10, i32 1, !dbg !3455
  store ptr %11, ptr %9, align 8, !dbg !3455
  ret ptr %10, !dbg !3455
}

; Function Attrs: mustprogress noinline optnone uwtable
define linkonce_odr dso_local void @"?clear@?$basic_ios@DU?$char_traits@D@std@@@std@@QEAAXH_N@Z"(ptr noundef nonnull align 8 dereferenceable(96) %0, i32 noundef %1, i1 noundef zeroext %2) #0 comdat align 2 !dbg !3456 {
  %4 = alloca i8, align 1
  %5 = alloca i32, align 4
  %6 = alloca ptr, align 8
  %7 = zext i1 %2 to i8
  store i8 %7, ptr %4, align 1
    #dbg_declare(ptr %4, !3458, !DIExpression(), !3459)
  store i32 %1, ptr %5, align 4
    #dbg_declare(ptr %5, !3460, !DIExpression(), !3459)
  store ptr %0, ptr %6, align 8
    #dbg_declare(ptr %6, !3461, !DIExpression(), !3462)
  %8 = load ptr, ptr %6, align 8
  %9 = load i8, ptr %4, align 1, !dbg !3463
  %10 = trunc i8 %9 to i1, !dbg !3463
  %11 = load i32, ptr %5, align 4, !dbg !3463
  %12 = getelementptr inbounds nuw %"class.std::basic_ios", ptr %8, i32 0, i32 1, !dbg !3463
  %13 = load ptr, ptr %12, align 8, !dbg !3463
  %14 = icmp ne ptr %13, null, !dbg !3463
  %15 = zext i1 %14 to i64, !dbg !3463
  %16 = select i1 %14, i32 0, i32 4, !dbg !3463
  %17 = or i32 %11, %16, !dbg !3463
  call void @"?clear@ios_base@std@@QEAAXH_N@Z"(ptr noundef nonnull align 8 dereferenceable(72) %8, i32 noundef %17, i1 noundef zeroext %10), !dbg !3463
  ret void, !dbg !3464
}

; Function Attrs: mustprogress noinline optnone uwtable
define linkonce_odr dso_local void @"?clear@ios_base@std@@QEAAXH_N@Z"(ptr noundef nonnull align 8 dereferenceable(72) %0, i32 noundef %1, i1 noundef zeroext %2) #0 comdat align 2 !dbg !3465 {
  %4 = alloca i8, align 1
  %5 = alloca i32, align 4
  %6 = alloca ptr, align 8
  %7 = alloca i32, align 4
  %8 = alloca ptr, align 8
  %9 = alloca %"class.std::ios_base::failure", align 8
  %10 = alloca %"class.std::error_code", align 8
  %11 = zext i1 %2 to i8
  store i8 %11, ptr %4, align 1
    #dbg_declare(ptr %4, !3469, !DIExpression(), !3470)
  store i32 %1, ptr %5, align 4
    #dbg_declare(ptr %5, !3471, !DIExpression(), !3470)
  store ptr %0, ptr %6, align 8
    #dbg_declare(ptr %6, !3472, !DIExpression(), !3473)
  %12 = load ptr, ptr %6, align 8
  %13 = load i32, ptr %5, align 4, !dbg !3474
  %14 = and i32 %13, 23, !dbg !3474
  store i32 %14, ptr %5, align 4, !dbg !3474
  %15 = load i32, ptr %5, align 4, !dbg !3475
  %16 = getelementptr inbounds nuw %"class.std::ios_base", ptr %12, i32 0, i32 2, !dbg !3475
  store i32 %15, ptr %16, align 8, !dbg !3475
    #dbg_declare(ptr %7, !3476, !DIExpression(), !3478)
  %17 = load i32, ptr %5, align 4, !dbg !3478
  %18 = getelementptr inbounds nuw %"class.std::ios_base", ptr %12, i32 0, i32 3, !dbg !3478
  %19 = load i32, ptr %18, align 4, !dbg !3478
  %20 = and i32 %17, %19, !dbg !3478
  store i32 %20, ptr %7, align 4, !dbg !3478
  %21 = load i32, ptr %7, align 4, !dbg !3479
  %22 = icmp ne i32 %21, 0, !dbg !3479
  br i1 %22, label %23, label %42, !dbg !3479

23:                                               ; preds = %3
  %24 = load i8, ptr %4, align 1, !dbg !3480
  %25 = trunc i8 %24 to i1, !dbg !3480
  br i1 %25, label %26, label %27, !dbg !3480

26:                                               ; preds = %23
  call void @_CxxThrowException(ptr null, ptr null) #15, !dbg !3483
  unreachable, !dbg !3483

27:                                               ; preds = %23
    #dbg_declare(ptr %8, !3486, !DIExpression(), !3487)
  %28 = load i32, ptr %7, align 4, !dbg !3488
  %29 = and i32 %28, 4, !dbg !3488
  %30 = icmp ne i32 %29, 0, !dbg !3488
  br i1 %30, label %31, label %32, !dbg !3488

31:                                               ; preds = %27
  store ptr @"??_C@_0BF@PHHKMMFD@ios_base?3?3badbit?5set?$AA@", ptr %8, align 8, !dbg !3489
  br label %39, !dbg !3492

32:                                               ; preds = %27
  %33 = load i32, ptr %7, align 4, !dbg !3493
  %34 = and i32 %33, 2, !dbg !3493
  %35 = icmp ne i32 %34, 0, !dbg !3493
  br i1 %35, label %36, label %37, !dbg !3493

36:                                               ; preds = %32
  store ptr @"??_C@_0BG@FMKFHCIL@ios_base?3?3failbit?5set?$AA@", ptr %8, align 8, !dbg !3494
  br label %38, !dbg !3497

37:                                               ; preds = %32
  store ptr @"??_C@_0BF@OOHOMBOF@ios_base?3?3eofbit?5set?$AA@", ptr %8, align 8, !dbg !3498
  br label %38, !dbg !3500

38:                                               ; preds = %37, %36
  br label %39, !dbg !3501

39:                                               ; preds = %38, %31
  call void @"?make_error_code@std@@YA?AVerror_code@1@W4io_errc@1@@Z"(ptr dead_on_unwind writable sret(%"class.std::error_code") align 8 %10, i32 noundef 1) #4, !dbg !3502
  %40 = load ptr, ptr %8, align 8, !dbg !3502
  %41 = call noundef ptr @"??0failure@ios_base@std@@QEAA@PEBDAEBVerror_code@2@@Z"(ptr noundef nonnull align 8 dereferenceable(40) %9, ptr noundef %40, ptr noundef nonnull align 8 dereferenceable(16) %10), !dbg !3502
  call void @_CxxThrowException(ptr %9, ptr @"_TI5?AVfailure@ios_base@std@@") #15, !dbg !3502
  unreachable, !dbg !3502

42:                                               ; preds = %3
  ret void, !dbg !3503
}

declare dso_local void @_CxxThrowException(ptr, ptr)

; Function Attrs: mustprogress noinline nounwind optnone uwtable
define linkonce_odr dso_local void @"?make_error_code@std@@YA?AVerror_code@1@W4io_errc@1@@Z"(ptr dead_on_unwind noalias writable sret(%"class.std::error_code") align 8 %0, i32 noundef %1) #2 comdat !dbg !3504 {
  %3 = alloca ptr, align 8
  %4 = alloca i32, align 4
  store ptr %0, ptr %3, align 8
  store i32 %1, ptr %4, align 4
    #dbg_declare(ptr %4, !3507, !DIExpression(), !3508)
  %5 = call noundef nonnull align 8 dereferenceable(16) ptr @"?iostream_category@std@@YAAEBVerror_category@1@XZ"() #4, !dbg !3509
  %6 = load i32, ptr %4, align 4, !dbg !3509
  %7 = call noundef ptr @"??0error_code@std@@QEAA@HAEBVerror_category@1@@Z"(ptr noundef nonnull align 8 dereferenceable(16) %0, i32 noundef %6, ptr noundef nonnull align 8 dereferenceable(16) %5) #4, !dbg !3509
  ret void, !dbg !3509
}

; Function Attrs: mustprogress noinline optnone uwtable
define linkonce_odr dso_local noundef ptr @"??0failure@ios_base@std@@QEAA@PEBDAEBVerror_code@2@@Z"(ptr noundef nonnull returned align 8 dereferenceable(40) %0, ptr noundef %1, ptr noundef nonnull align 8 dereferenceable(16) %2) unnamed_addr #0 comdat align 2 !dbg !3510 {
  %4 = alloca ptr, align 8
  %5 = alloca ptr, align 8
  %6 = alloca ptr, align 8
  %7 = alloca %"class.std::error_code", align 8
  store ptr %2, ptr %4, align 8
    #dbg_declare(ptr %4, !3511, !DIExpression(), !3512)
  store ptr %1, ptr %5, align 8
    #dbg_declare(ptr %5, !3513, !DIExpression(), !3512)
  store ptr %0, ptr %6, align 8
    #dbg_declare(ptr %6, !3514, !DIExpression(), !3516)
  %8 = load ptr, ptr %6, align 8
  %9 = load ptr, ptr %5, align 8, !dbg !3517
  %10 = load ptr, ptr %4, align 8, !dbg !3517, !nonnull !308, !align !3045
  call void @llvm.memcpy.p0.p0.i64(ptr align 8 %7, ptr align 8 %10, i64 16, i1 false), !dbg !3517
  %11 = call noundef ptr @"??0system_error@std@@QEAA@Verror_code@1@PEBD@Z"(ptr noundef nonnull align 8 dereferenceable(40) %8, ptr noundef %7, ptr noundef %9), !dbg !3517
  store ptr @"??_7failure@ios_base@std@@6B@", ptr %8, align 8, !dbg !3517
  ret ptr %8, !dbg !3517
}

; Function Attrs: mustprogress noinline nounwind optnone uwtable
define linkonce_odr dso_local noundef ptr @"??0failure@ios_base@std@@QEAA@AEBV012@@Z"(ptr noundef nonnull returned align 8 dereferenceable(40) %0, ptr noundef nonnull align 8 dereferenceable(40) %1) unnamed_addr #2 comdat align 2 !dbg !3518 {
  %3 = alloca ptr, align 8
  %4 = alloca ptr, align 8
  store ptr %1, ptr %3, align 8
    #dbg_declare(ptr %3, !3524, !DIExpression(), !3525)
  store ptr %0, ptr %4, align 8
    #dbg_declare(ptr %4, !3526, !DIExpression(), !3525)
  %5 = load ptr, ptr %4, align 8
  %6 = load ptr, ptr %3, align 8, !dbg !3527, !nonnull !308, !align !3045
  %7 = call noundef ptr @"??0system_error@std@@QEAA@AEBV01@@Z"(ptr noundef nonnull align 8 dereferenceable(40) %5, ptr noundef nonnull align 8 dereferenceable(40) %6) #4, !dbg !3527
  store ptr @"??_7failure@ios_base@std@@6B@", ptr %5, align 8, !dbg !3527
  ret ptr %5, !dbg !3527
}

; Function Attrs: mustprogress noinline nounwind optnone uwtable
define linkonce_odr dso_local noundef ptr @"??0system_error@std@@QEAA@AEBV01@@Z"(ptr noundef nonnull returned align 8 dereferenceable(40) %0, ptr noundef nonnull align 8 dereferenceable(40) %1) unnamed_addr #2 comdat align 2 !dbg !3528 {
  %3 = alloca ptr, align 8
  %4 = alloca ptr, align 8
  store ptr %1, ptr %3, align 8
    #dbg_declare(ptr %3, !3533, !DIExpression(), !3534)
  store ptr %0, ptr %4, align 8
    #dbg_declare(ptr %4, !3535, !DIExpression(), !3534)
  %5 = load ptr, ptr %4, align 8
  %6 = load ptr, ptr %3, align 8, !dbg !3537, !nonnull !308, !align !3045
  %7 = call noundef ptr @"??0_System_error@std@@QEAA@AEBV01@@Z"(ptr noundef nonnull align 8 dereferenceable(40) %5, ptr noundef nonnull align 8 dereferenceable(40) %6) #4, !dbg !3537
  store ptr @"??_7system_error@std@@6B@", ptr %5, align 8, !dbg !3537
  ret ptr %5, !dbg !3537
}

; Function Attrs: mustprogress noinline nounwind optnone uwtable
define linkonce_odr dso_local noundef ptr @"??0_System_error@std@@QEAA@AEBV01@@Z"(ptr noundef nonnull returned align 8 dereferenceable(40) %0, ptr noundef nonnull align 8 dereferenceable(40) %1) unnamed_addr #2 comdat align 2 !dbg !3538 {
  %3 = alloca ptr, align 8
  %4 = alloca ptr, align 8
  store ptr %1, ptr %3, align 8
    #dbg_declare(ptr %3, !3544, !DIExpression(), !3545)
  store ptr %0, ptr %4, align 8
    #dbg_declare(ptr %4, !3546, !DIExpression(), !3545)
  %5 = load ptr, ptr %4, align 8
  %6 = load ptr, ptr %3, align 8, !dbg !3548, !nonnull !308, !align !3045
  %7 = call noundef ptr @"??0runtime_error@std@@QEAA@AEBV01@@Z"(ptr noundef nonnull align 8 dereferenceable(24) %5, ptr noundef nonnull align 8 dereferenceable(24) %6) #4, !dbg !3548
  store ptr @"??_7_System_error@std@@6B@", ptr %5, align 8, !dbg !3548
  %8 = getelementptr inbounds nuw %"class.std::_System_error", ptr %5, i32 0, i32 1, !dbg !3548
  %9 = load ptr, ptr %3, align 8, !dbg !3548, !nonnull !308, !align !3045
  %10 = getelementptr inbounds nuw %"class.std::_System_error", ptr %9, i32 0, i32 1, !dbg !3548
  call void @llvm.memcpy.p0.p0.i64(ptr align 8 %8, ptr align 8 %10, i64 16, i1 false), !dbg !3548
  ret ptr %5, !dbg !3548
}

; Function Attrs: mustprogress noinline nounwind optnone uwtable
define linkonce_odr dso_local noundef ptr @"??0runtime_error@std@@QEAA@AEBV01@@Z"(ptr noundef nonnull returned align 8 dereferenceable(24) %0, ptr noundef nonnull align 8 dereferenceable(24) %1) unnamed_addr #2 comdat align 2 !dbg !3549 {
  %3 = alloca ptr, align 8
  %4 = alloca ptr, align 8
  store ptr %1, ptr %3, align 8
    #dbg_declare(ptr %3, !3555, !DIExpression(), !3556)
  store ptr %0, ptr %4, align 8
    #dbg_declare(ptr %4, !3557, !DIExpression(), !3556)
  %5 = load ptr, ptr %4, align 8
  %6 = load ptr, ptr %3, align 8, !dbg !3559, !nonnull !308, !align !3045
  %7 = call noundef ptr @"??0exception@std@@QEAA@AEBV01@@Z"(ptr noundef nonnull align 8 dereferenceable(24) %5, ptr noundef nonnull align 8 dereferenceable(24) %6) #4, !dbg !3559
  store ptr @"??_7runtime_error@std@@6B@", ptr %5, align 8, !dbg !3559
  ret ptr %5, !dbg !3559
}

; Function Attrs: mustprogress noinline nounwind optnone uwtable
define linkonce_odr dso_local noundef ptr @"??0exception@std@@QEAA@AEBV01@@Z"(ptr noundef nonnull returned align 8 dereferenceable(24) %0, ptr noundef nonnull align 8 dereferenceable(24) %1) unnamed_addr #2 comdat align 2 personality ptr @__CxxFrameHandler3 !dbg !3560 {
  %3 = alloca ptr, align 8
  %4 = alloca ptr, align 8
  store ptr %1, ptr %3, align 8
    #dbg_declare(ptr %3, !3561, !DIExpression(), !3562)
  store ptr %0, ptr %4, align 8
    #dbg_declare(ptr %4, !3563, !DIExpression(), !3565)
  %5 = load ptr, ptr %4, align 8
  store ptr @"??_7exception@std@@6B@", ptr %5, align 8, !dbg !3566
  %6 = getelementptr inbounds nuw %"class.std::exception", ptr %5, i32 0, i32 1, !dbg !3566
  call void @llvm.memset.p0.i64(ptr align 8 %6, i8 0, i64 16, i1 false), !dbg !3566
  %7 = getelementptr inbounds nuw %"class.std::exception", ptr %5, i32 0, i32 1, !dbg !3567
  %8 = load ptr, ptr %3, align 8, !dbg !3567, !nonnull !308, !align !3045
  %9 = getelementptr inbounds nuw %"class.std::exception", ptr %8, i32 0, i32 1, !dbg !3567
  invoke void @__std_exception_copy(ptr noundef %9, ptr noundef %7)
          to label %10 unwind label %11, !dbg !3567

10:                                               ; preds = %2
  ret ptr %5, !dbg !3569

11:                                               ; preds = %2
  %12 = cleanuppad within none [], !dbg !3567
  call void @__std_terminate() #14 [ "funclet"(token %12) ], !dbg !3567
  unreachable, !dbg !3567
}

; Function Attrs: mustprogress noinline nounwind optnone uwtable
define linkonce_odr dso_local void @"??1failure@ios_base@std@@UEAA@XZ"(ptr noundef nonnull align 8 dereferenceable(40) %0) unnamed_addr #2 comdat align 2 !dbg !3570 {
  %2 = alloca ptr, align 8
  store ptr %0, ptr %2, align 8
    #dbg_declare(ptr %2, !3574, !DIExpression(), !3575)
  %3 = load ptr, ptr %2, align 8
  call void @"??1system_error@std@@UEAA@XZ"(ptr noundef nonnull align 8 dereferenceable(40) %3) #4, !dbg !3576
  ret void, !dbg !3578
}

; Function Attrs: mustprogress noinline nounwind optnone uwtable
define linkonce_odr dso_local noundef nonnull align 8 dereferenceable(16) ptr @"?iostream_category@std@@YAAEBVerror_category@1@XZ"() #2 comdat !dbg !3579 {
  %1 = call noundef nonnull align 8 dereferenceable(16) ptr @"??$_Immortalize_memcpy_image@V_Iostream_error_category2@std@@@std@@YAAEBV_Iostream_error_category2@0@XZ"() #4, !dbg !3582
  ret ptr %1, !dbg !3582
}

; Function Attrs: mustprogress noinline nounwind optnone uwtable
define linkonce_odr dso_local noundef ptr @"??0error_code@std@@QEAA@HAEBVerror_category@1@@Z"(ptr noundef nonnull returned align 8 dereferenceable(16) %0, i32 noundef %1, ptr noundef nonnull align 8 dereferenceable(16) %2) unnamed_addr #2 comdat align 2 !dbg !3583 {
  %4 = alloca ptr, align 8
  %5 = alloca i32, align 4
  %6 = alloca ptr, align 8
  store ptr %2, ptr %4, align 8
    #dbg_declare(ptr %4, !3584, !DIExpression(), !3585)
  store i32 %1, ptr %5, align 4
    #dbg_declare(ptr %5, !3586, !DIExpression(), !3585)
  store ptr %0, ptr %6, align 8
    #dbg_declare(ptr %6, !3587, !DIExpression(), !3589)
  %7 = load ptr, ptr %6, align 8
  %8 = getelementptr inbounds nuw %"class.std::error_code", ptr %7, i32 0, i32 0, !dbg !3585
  %9 = load i32, ptr %5, align 4, !dbg !3585
  store i32 %9, ptr %8, align 8, !dbg !3585
  %10 = getelementptr inbounds nuw %"class.std::error_code", ptr %7, i32 0, i32 1, !dbg !3585
  %11 = load ptr, ptr %4, align 8, !dbg !3585, !nonnull !308, !align !3045
  store ptr %11, ptr %10, align 8, !dbg !3585
  ret ptr %7, !dbg !3585
}

; Function Attrs: mustprogress noinline nounwind optnone uwtable
define linkonce_odr dso_local noundef nonnull align 8 dereferenceable(16) ptr @"??$_Immortalize_memcpy_image@V_Iostream_error_category2@std@@@std@@YAAEBV_Iostream_error_category2@0@XZ"() #2 comdat !dbg !76 {
  %1 = load atomic i32, ptr @"?$TSS0@?1???$_Immortalize_memcpy_image@V_Iostream_error_category2@std@@@std@@YAAEBV_Iostream_error_category2@1@XZ@4HA" unordered, align 4, !dbg !3590
  %2 = load i32, ptr @_Init_thread_epoch, align 4, !dbg !3590
  %3 = icmp sgt i32 %1, %2, !dbg !3590
  br i1 %3, label %4, label %9, !dbg !3590, !prof !3591

4:                                                ; preds = %0
  call void @_Init_thread_header(ptr @"?$TSS0@?1???$_Immortalize_memcpy_image@V_Iostream_error_category2@std@@@std@@YAAEBV_Iostream_error_category2@1@XZ@4HA") #4, !dbg !3590
  %5 = load atomic i32, ptr @"?$TSS0@?1???$_Immortalize_memcpy_image@V_Iostream_error_category2@std@@@std@@YAAEBV_Iostream_error_category2@1@XZ@4HA" unordered, align 4, !dbg !3590
  %6 = icmp eq i32 %5, -1, !dbg !3590
  br i1 %6, label %7, label %9, !dbg !3590

7:                                                ; preds = %4
  %8 = call i32 @atexit(ptr @"??__F_Static@?1???$_Immortalize_memcpy_image@V_Iostream_error_category2@std@@@std@@YAAEBV_Iostream_error_category2@1@XZ@YAXXZ") #4, !dbg !3590
  call void @_Init_thread_footer(ptr @"?$TSS0@?1???$_Immortalize_memcpy_image@V_Iostream_error_category2@std@@@std@@YAAEBV_Iostream_error_category2@1@XZ@4HA") #4, !dbg !3590
  br label %9, !dbg !3590

9:                                                ; preds = %7, %4, %0
  ret ptr @"?_Static@?1???$_Immortalize_memcpy_image@V_Iostream_error_category2@std@@@std@@YAAEBV_Iostream_error_category2@1@XZ@4V21@A", !dbg !3592
}

; Function Attrs: nounwind
declare dso_local void @_Init_thread_header(ptr) #4

; Function Attrs: mustprogress noinline nounwind optnone uwtable
define linkonce_odr dso_local void @"??1_Iostream_error_category2@std@@UEAA@XZ"(ptr noundef nonnull align 8 dereferenceable(16) %0) unnamed_addr #2 comdat align 2 !dbg !3593 {
  %2 = alloca ptr, align 8
  store ptr %0, ptr %2, align 8
    #dbg_declare(ptr %2, !3595, !DIExpression(), !3597)
  %3 = load ptr, ptr %2, align 8
  call void @"??1error_category@std@@UEAA@XZ"(ptr noundef nonnull align 8 dereferenceable(16) %3) #4, !dbg !3598
  ret void, !dbg !3600
}

; Function Attrs: noinline uwtable
define internal void @"??__F_Static@?1???$_Immortalize_memcpy_image@V_Iostream_error_category2@std@@@std@@YAAEBV_Iostream_error_category2@1@XZ@YAXXZ"() #5 !dbg !3601 {
  call void @"??1_Iostream_error_category2@std@@UEAA@XZ"(ptr @"?_Static@?1???$_Immortalize_memcpy_image@V_Iostream_error_category2@std@@@std@@YAAEBV_Iostream_error_category2@1@XZ@4V21@A"), !dbg !3602
  ret void, !dbg !3602
}

; Function Attrs: nounwind
declare dso_local i32 @atexit(ptr) #4

; Function Attrs: nounwind
declare dso_local void @_Init_thread_footer(ptr) #4

; Function Attrs: mustprogress noinline nounwind optnone uwtable
define linkonce_odr dso_local noundef ptr @"??_G_Iostream_error_category2@std@@UEAAPEAXI@Z"(ptr noundef nonnull align 8 dereferenceable(16) %0, i32 noundef %1) unnamed_addr #2 comdat align 2 !dbg !3603 {
  %3 = alloca ptr, align 8
  %4 = alloca i32, align 4
  %5 = alloca ptr, align 8
  store i32 %1, ptr %4, align 4
    #dbg_declare(ptr %4, !3606, !DIExpression(), !3607)
  store ptr %0, ptr %5, align 8
    #dbg_declare(ptr %5, !3608, !DIExpression(), !3607)
  %6 = load ptr, ptr %5, align 8
  store ptr %6, ptr %3, align 8
  %7 = load i32, ptr %4, align 4
  call void @"??1_Iostream_error_category2@std@@UEAA@XZ"(ptr noundef nonnull align 8 dereferenceable(16) %6) #4, !dbg !3609
  %8 = icmp eq i32 %7, 0, !dbg !3609
  br i1 %8, label %10, label %9, !dbg !3609

9:                                                ; preds = %2
  call void @"??3@YAXPEAX_K@Z"(ptr noundef %6, i64 noundef 16) #16, !dbg !3609
  br label %10, !dbg !3609

10:                                               ; preds = %9, %2
  %11 = load ptr, ptr %3, align 8, !dbg !3609
  ret ptr %11, !dbg !3609
}

; Function Attrs: mustprogress noinline nounwind optnone uwtable
define linkonce_odr dso_local noundef ptr @"?name@_Iostream_error_category2@std@@UEBAPEBDXZ"(ptr noundef nonnull align 8 dereferenceable(16) %0) unnamed_addr #2 comdat align 2 !dbg !3610 {
  %2 = alloca ptr, align 8
  store ptr %0, ptr %2, align 8
    #dbg_declare(ptr %2, !3611, !DIExpression(), !3613)
  %3 = load ptr, ptr %2, align 8
  ret ptr @"??_C@_08LLGCOLLL@iostream?$AA@", !dbg !3614
}

; Function Attrs: mustprogress noinline optnone uwtable
define linkonce_odr dso_local void @"?message@_Iostream_error_category2@std@@UEBA?AV?$basic_string@DU?$char_traits@D@std@@V?$allocator@D@2@@2@H@Z"(ptr noundef nonnull align 8 dereferenceable(16) %0, ptr dead_on_unwind noalias writable sret(%"class.std::basic_string") align 8 %1, i32 noundef %2) unnamed_addr #0 comdat align 2 !dbg !1832 {
  %4 = alloca ptr, align 8
  %5 = alloca i32, align 4
  %6 = alloca ptr, align 8
  %7 = alloca i64, align 8
  store ptr %1, ptr %4, align 8
  store i32 %2, ptr %5, align 4
    #dbg_declare(ptr %5, !3615, !DIExpression(), !3616)
  store ptr %0, ptr %6, align 8
    #dbg_declare(ptr %6, !3617, !DIExpression(), !3618)
  %8 = load ptr, ptr %6, align 8
  %9 = load i32, ptr %5, align 4, !dbg !3619
  %10 = icmp eq i32 %9, 1, !dbg !3619
  br i1 %10, label %11, label %13, !dbg !3619

11:                                               ; preds = %3
    #dbg_declare(ptr %7, !3620, !DIExpression(), !3623)
  store i64 21, ptr %7, align 8, !dbg !3623
  %12 = call noundef ptr @"??0?$basic_string@DU?$char_traits@D@std@@V?$allocator@D@2@@std@@QEAA@QEBD_K@Z"(ptr noundef nonnull align 8 dereferenceable(32) %1, ptr noundef @"?_Iostream_error@?4??message@_Iostream_error_category2@std@@UEBA?AV?$basic_string@DU?$char_traits@D@std@@V?$allocator@D@2@@3@H@Z@4QBDB", i64 noundef 21), !dbg !3624
  br label %17, !dbg !3624

13:                                               ; preds = %3
  %14 = load i32, ptr %5, align 4, !dbg !3625
  %15 = call noundef ptr @"?_Syserror_map@std@@YAPEBDH@Z"(i32 noundef %14), !dbg !3625
  %16 = call noundef ptr @"??0?$basic_string@DU?$char_traits@D@std@@V?$allocator@D@2@@std@@QEAA@QEBD@Z"(ptr noundef nonnull align 8 dereferenceable(32) %1, ptr noundef %15), !dbg !3625
  br label %17, !dbg !3625

17:                                               ; preds = %13, %11
  ret void, !dbg !3627
}

; Function Attrs: mustprogress noinline nounwind optnone uwtable
define linkonce_odr dso_local void @"?default_error_condition@error_category@std@@UEBA?AVerror_condition@2@H@Z"(ptr noundef nonnull align 8 dereferenceable(16) %0, ptr dead_on_unwind noalias writable sret(%"class.std::error_condition") align 8 %1, i32 noundef %2) unnamed_addr #2 comdat align 2 !dbg !3628 {
  %4 = alloca ptr, align 8
  %5 = alloca i32, align 4
  %6 = alloca ptr, align 8
  store ptr %1, ptr %4, align 8
  store i32 %2, ptr %5, align 4
    #dbg_declare(ptr %5, !3629, !DIExpression(), !3630)
  store ptr %0, ptr %6, align 8
    #dbg_declare(ptr %6, !3631, !DIExpression(), !3632)
  %7 = load ptr, ptr %6, align 8
  %8 = load i32, ptr %5, align 4, !dbg !3633
  %9 = call noundef ptr @"??0error_condition@std@@QEAA@HAEBVerror_category@1@@Z"(ptr noundef nonnull align 8 dereferenceable(16) %1, i32 noundef %8, ptr noundef nonnull align 8 dereferenceable(16) %7) #4, !dbg !3633
  ret void, !dbg !3633
}

; Function Attrs: mustprogress noinline nounwind optnone uwtable
define linkonce_odr dso_local noundef zeroext i1 @"?equivalent@error_category@std@@UEBA_NAEBVerror_code@2@H@Z"(ptr noundef nonnull align 8 dereferenceable(16) %0, ptr noundef nonnull align 8 dereferenceable(16) %1, i32 noundef %2) unnamed_addr #2 comdat align 2 !dbg !3634 {
  %4 = alloca i32, align 4
  %5 = alloca ptr, align 8
  %6 = alloca ptr, align 8
  store i32 %2, ptr %4, align 4
    #dbg_declare(ptr %4, !3635, !DIExpression(), !3636)
  store ptr %1, ptr %5, align 8
    #dbg_declare(ptr %5, !3637, !DIExpression(), !3636)
  store ptr %0, ptr %6, align 8
    #dbg_declare(ptr %6, !3638, !DIExpression(), !3639)
  %7 = load ptr, ptr %6, align 8
  %8 = load ptr, ptr %5, align 8, !dbg !3640, !nonnull !308, !align !3045
  %9 = call noundef nonnull align 8 dereferenceable(16) ptr @"?category@error_code@std@@QEBAAEBVerror_category@2@XZ"(ptr noundef nonnull align 8 dereferenceable(16) %8) #4, !dbg !3640
  %10 = call noundef zeroext i1 @"??8error_category@std@@QEBA_NAEBV01@@Z"(ptr noundef nonnull align 8 dereferenceable(16) %7, ptr noundef nonnull align 8 dereferenceable(16) %9) #4, !dbg !3640
  br i1 %10, label %11, label %16, !dbg !3640

11:                                               ; preds = %3
  %12 = load ptr, ptr %5, align 8, !dbg !3640, !nonnull !308, !align !3045
  %13 = call noundef i32 @"?value@error_code@std@@QEBAHXZ"(ptr noundef nonnull align 8 dereferenceable(16) %12) #4, !dbg !3640
  %14 = load i32, ptr %4, align 4, !dbg !3640
  %15 = icmp eq i32 %13, %14, !dbg !3640
  br label %16, !dbg !3640

16:                                               ; preds = %11, %3
  %17 = phi i1 [ false, %3 ], [ %15, %11 ], !dbg !3640
  ret i1 %17, !dbg !3640
}

; Function Attrs: mustprogress noinline nounwind optnone uwtable
define linkonce_odr dso_local noundef zeroext i1 @"?equivalent@error_category@std@@UEBA_NHAEBVerror_condition@2@@Z"(ptr noundef nonnull align 8 dereferenceable(16) %0, i32 noundef %1, ptr noundef nonnull align 8 dereferenceable(16) %2) unnamed_addr #2 comdat align 2 !dbg !3641 {
  %4 = alloca ptr, align 8
  %5 = alloca i32, align 4
  %6 = alloca ptr, align 8
  %7 = alloca %"class.std::error_condition", align 8
  store ptr %2, ptr %4, align 8
    #dbg_declare(ptr %4, !3642, !DIExpression(), !3643)
  store i32 %1, ptr %5, align 4
    #dbg_declare(ptr %5, !3644, !DIExpression(), !3643)
  store ptr %0, ptr %6, align 8
    #dbg_declare(ptr %6, !3645, !DIExpression(), !3646)
  %8 = load ptr, ptr %6, align 8
  %9 = load ptr, ptr %4, align 8, !dbg !3647, !nonnull !308, !align !3045
  %10 = load i32, ptr %5, align 4, !dbg !3647
  %11 = load ptr, ptr %8, align 8, !dbg !3647
  %12 = getelementptr inbounds ptr, ptr %11, i64 3, !dbg !3647
  %13 = load ptr, ptr %12, align 8, !dbg !3647
  call void %13(ptr noundef nonnull align 8 dereferenceable(16) %8, ptr dead_on_unwind writable sret(%"class.std::error_condition") align 8 %7, i32 noundef %10) #4, !dbg !3647
  %14 = call noundef zeroext i1 @"??8std@@YA_NAEBVerror_condition@0@0@Z"(ptr noundef nonnull align 8 dereferenceable(16) %7, ptr noundef nonnull align 8 dereferenceable(16) %9) #4, !dbg !3647
  ret i1 %14, !dbg !3647
}

; Function Attrs: mustprogress noinline nounwind optnone uwtable
define linkonce_odr dso_local void @"??1error_category@std@@UEAA@XZ"(ptr noundef nonnull align 8 dereferenceable(16) %0) unnamed_addr #2 comdat align 2 !dbg !3648 {
  %2 = alloca ptr, align 8
  store ptr %0, ptr %2, align 8
    #dbg_declare(ptr %2, !3649, !DIExpression(), !3650)
  %3 = load ptr, ptr %2, align 8
  ret void, !dbg !3651
}

; Function Attrs: nobuiltin nounwind
declare dso_local void @"??3@YAXPEAX_K@Z"(ptr noundef, i64 noundef) #6

; Function Attrs: mustprogress noinline optnone uwtable
define linkonce_odr dso_local noundef ptr @"??0?$basic_string@DU?$char_traits@D@std@@V?$allocator@D@2@@std@@QEAA@QEBD_K@Z"(ptr noundef nonnull returned align 8 dereferenceable(32) %0, ptr noundef %1, i64 noundef %2) unnamed_addr #0 comdat align 2 personality ptr @__CxxFrameHandler3 !dbg !3652 {
  %4 = alloca i64, align 8
  %5 = alloca ptr, align 8
  %6 = alloca ptr, align 8
  %7 = alloca %"struct.std::_Zero_then_variadic_args_t", align 1
  store i64 %2, ptr %4, align 8
    #dbg_declare(ptr %4, !3653, !DIExpression(), !3654)
  store ptr %1, ptr %5, align 8
    #dbg_declare(ptr %5, !3655, !DIExpression(), !3654)
  store ptr %0, ptr %6, align 8
    #dbg_declare(ptr %6, !3656, !DIExpression(), !3658)
  %8 = load ptr, ptr %6, align 8
  %9 = getelementptr inbounds nuw %"class.std::basic_string", ptr %8, i32 0, i32 0, !dbg !3659
  %10 = getelementptr inbounds nuw %"struct.std::_Zero_then_variadic_args_t", ptr %7, i32 0, i32 0, !dbg !3659
  %11 = load i8, ptr %10, align 1, !dbg !3659
  %12 = call noundef ptr @"??$?0$$V@?$_Compressed_pair@V?$allocator@D@std@@V?$_String_val@U?$_Simple_types@D@std@@@2@$00@std@@QEAA@U_Zero_then_variadic_args_t@1@@Z"(ptr noundef nonnull align 8 dereferenceable(32) %9, i8 %11) #4, !dbg !3659
  %13 = load i64, ptr %4, align 8, !dbg !3660
  %14 = load ptr, ptr %5, align 8, !dbg !3660
  invoke void @"??$_Construct@$00PEBD@?$basic_string@DU?$char_traits@D@std@@V?$allocator@D@2@@std@@AEAAXQEBD_K@Z"(ptr noundef nonnull align 8 dereferenceable(32) %8, ptr noundef %14, i64 noundef %13)
          to label %15 unwind label %16, !dbg !3660

15:                                               ; preds = %3
  ret ptr %8, !dbg !3662

16:                                               ; preds = %3
  %17 = cleanuppad within none [], !dbg !3663
  call void @"??1?$_Compressed_pair@V?$allocator@D@std@@V?$_String_val@U?$_Simple_types@D@std@@@2@$00@std@@QEAA@XZ"(ptr noundef nonnull align 8 dereferenceable(32) %9) #4 [ "funclet"(token %17) ], !dbg !3663
  cleanupret from %17 unwind to caller, !dbg !3663
}

declare dso_local noundef ptr @"?_Syserror_map@std@@YAPEBDH@Z"(i32 noundef) #7

; Function Attrs: mustprogress noinline optnone uwtable
define linkonce_odr dso_local noundef ptr @"??0?$basic_string@DU?$char_traits@D@std@@V?$allocator@D@2@@std@@QEAA@QEBD@Z"(ptr noundef nonnull returned align 8 dereferenceable(32) %0, ptr noundef %1) unnamed_addr #0 comdat align 2 personality ptr @__CxxFrameHandler3 !dbg !3664 {
  %3 = alloca ptr, align 8
  %4 = alloca ptr, align 8
  %5 = alloca %"struct.std::_Zero_then_variadic_args_t", align 1
  store ptr %1, ptr %3, align 8
    #dbg_declare(ptr %3, !3665, !DIExpression(), !3666)
  store ptr %0, ptr %4, align 8
    #dbg_declare(ptr %4, !3667, !DIExpression(), !3668)
  %6 = load ptr, ptr %4, align 8
  %7 = getelementptr inbounds nuw %"class.std::basic_string", ptr %6, i32 0, i32 0, !dbg !3666
  %8 = getelementptr inbounds nuw %"struct.std::_Zero_then_variadic_args_t", ptr %5, i32 0, i32 0, !dbg !3666
  %9 = load i8, ptr %8, align 1, !dbg !3666
  %10 = call noundef ptr @"??$?0$$V@?$_Compressed_pair@V?$allocator@D@std@@V?$_String_val@U?$_Simple_types@D@std@@@2@$00@std@@QEAA@U_Zero_then_variadic_args_t@1@@Z"(ptr noundef nonnull align 8 dereferenceable(32) %7, i8 %9) #4, !dbg !3666
  %11 = load ptr, ptr %3, align 8, !dbg !3669
  %12 = call noundef i64 @"?length@?$_Narrow_char_traits@DH@std@@SA_KQEBD@Z"(ptr noundef %11) #4, !dbg !3669
  %13 = call noundef i64 @"??$_Convert_size@_K_K@std@@YA_K_K@Z"(i64 noundef %12) #4, !dbg !3669
  %14 = load ptr, ptr %3, align 8, !dbg !3669
  invoke void @"??$_Construct@$00PEBD@?$basic_string@DU?$char_traits@D@std@@V?$allocator@D@2@@std@@AEAAXQEBD_K@Z"(ptr noundef nonnull align 8 dereferenceable(32) %6, ptr noundef %14, i64 noundef %13)
          to label %15 unwind label %16, !dbg !3669

15:                                               ; preds = %2
  ret ptr %6, !dbg !3671

16:                                               ; preds = %2
  %17 = cleanuppad within none [], !dbg !3672
  call void @"??1?$_Compressed_pair@V?$allocator@D@std@@V?$_String_val@U?$_Simple_types@D@std@@@2@$00@std@@QEAA@XZ"(ptr noundef nonnull align 8 dereferenceable(32) %7) #4 [ "funclet"(token %17) ], !dbg !3672
  cleanupret from %17 unwind to caller, !dbg !3672
}

; Function Attrs: mustprogress noinline nounwind optnone uwtable
define linkonce_odr dso_local noundef ptr @"??$?0$$V@?$_Compressed_pair@V?$allocator@D@std@@V?$_String_val@U?$_Simple_types@D@std@@@2@$00@std@@QEAA@U_Zero_then_variadic_args_t@1@@Z"(ptr noundef nonnull returned align 8 dereferenceable(32) %0, i8 %1) unnamed_addr #2 comdat align 2 !dbg !3673 {
  %3 = alloca %"struct.std::_Zero_then_variadic_args_t", align 1
  %4 = alloca ptr, align 8
  %5 = getelementptr inbounds nuw %"struct.std::_Zero_then_variadic_args_t", ptr %3, i32 0, i32 0
  store i8 %1, ptr %5, align 1
    #dbg_declare(ptr %3, !3679, !DIExpression(), !3680)
  store ptr %0, ptr %4, align 8
    #dbg_declare(ptr %4, !3681, !DIExpression(), !3683)
  %6 = load ptr, ptr %4, align 8
  %7 = call noundef ptr @"??0?$allocator@D@std@@QEAA@XZ"(ptr noundef nonnull align 1 dereferenceable(1) %6) #4, !dbg !3684
  %8 = getelementptr inbounds nuw %"class.std::_Compressed_pair", ptr %6, i32 0, i32 0, !dbg !3684
  %9 = call noundef ptr @"??0?$_String_val@U?$_Simple_types@D@std@@@std@@QEAA@XZ"(ptr noundef nonnull align 8 dereferenceable(32) %8) #4, !dbg !3684
  ret ptr %6, !dbg !3684
}

; Function Attrs: mustprogress noinline optnone uwtable
define linkonce_odr dso_local void @"??$_Construct@$00PEBD@?$basic_string@DU?$char_traits@D@std@@V?$allocator@D@2@@std@@AEAAXQEBD_K@Z"(ptr noundef nonnull align 8 dereferenceable(32) %0, ptr noundef %1, i64 noundef %2) #0 comdat align 2 !dbg !3685 {
  %4 = alloca i64, align 8
  %5 = alloca ptr, align 8
  %6 = alloca ptr, align 8
  %7 = alloca ptr, align 8
  %8 = alloca ptr, align 8
  %9 = alloca ptr, align 8
  %10 = alloca %"struct.std::_Fake_proxy_ptr_impl", align 1
  %11 = alloca i8, align 1
  %12 = alloca i64, align 8
  %13 = alloca ptr, align 8
  %14 = alloca i8, align 1
  store i64 %2, ptr %4, align 8
    #dbg_declare(ptr %4, !3690, !DIExpression(), !3691)
  store ptr %1, ptr %5, align 8
    #dbg_declare(ptr %5, !3692, !DIExpression(), !3691)
  store ptr %0, ptr %6, align 8
    #dbg_declare(ptr %6, !3693, !DIExpression(), !3694)
  %15 = load ptr, ptr %6, align 8
    #dbg_declare(ptr %7, !3695, !DIExpression(), !3697)
  %16 = getelementptr inbounds nuw %"class.std::basic_string", ptr %15, i32 0, i32 0, !dbg !3697
  %17 = getelementptr inbounds nuw %"class.std::_Compressed_pair", ptr %16, i32 0, i32 0, !dbg !3697
  store ptr %17, ptr %7, align 8, !dbg !3697
  %18 = load i64, ptr %4, align 8, !dbg !3698
  %19 = call noundef i64 @"?max_size@?$basic_string@DU?$char_traits@D@std@@V?$allocator@D@2@@std@@QEBA_KXZ"(ptr noundef nonnull align 8 dereferenceable(32) %15) #4, !dbg !3698
  %20 = icmp ugt i64 %18, %19, !dbg !3698
  br i1 %20, label %21, label %22, !dbg !3698

21:                                               ; preds = %3
  call void @"?_Xlen_string@std@@YAXXZ"() #15, !dbg !3699
  unreachable, !dbg !3699

22:                                               ; preds = %3
    #dbg_declare(ptr %8, !3702, !DIExpression(), !3703)
  %23 = call noundef nonnull align 1 dereferenceable(1) ptr @"?_Getal@?$basic_string@DU?$char_traits@D@std@@V?$allocator@D@2@@std@@AEAAAEAV?$allocator@D@2@XZ"(ptr noundef nonnull align 8 dereferenceable(32) %15) #4, !dbg !3703
  store ptr %23, ptr %8, align 8, !dbg !3703
    #dbg_declare(ptr %9, !3704, !DIExpression(), !3705)
  store ptr @"?_Fake_alloc@std@@3U_Fake_allocator@1@B", ptr %9, align 8, !dbg !3705
    #dbg_declare(ptr %10, !3706, !DIExpression(), !3708)
  %24 = load ptr, ptr %7, align 8, !dbg !3708, !nonnull !308, !align !3045
  %25 = call noundef ptr @"??0_Fake_proxy_ptr_impl@std@@QEAA@AEBU_Fake_allocator@1@AEBU_Container_base0@1@@Z"(ptr noundef nonnull align 1 dereferenceable(1) %10, ptr noundef nonnull align 1 dereferenceable(1) @"?_Fake_alloc@std@@3U_Fake_allocator@1@B", ptr noundef nonnull align 1 dereferenceable(1) %24) #4, !dbg !3708
  %26 = load i64, ptr %4, align 8, !dbg !3709
  %27 = icmp ule i64 %26, 15, !dbg !3709
  br i1 %27, label %28, label %44, !dbg !3709

28:                                               ; preds = %22
  %29 = load i64, ptr %4, align 8, !dbg !3710
  %30 = load ptr, ptr %7, align 8, !dbg !3710, !nonnull !308, !align !3045
  %31 = getelementptr inbounds nuw %"class.std::_String_val", ptr %30, i32 0, i32 1, !dbg !3710
  store i64 %29, ptr %31, align 8, !dbg !3710
  %32 = load ptr, ptr %7, align 8, !dbg !3713, !nonnull !308, !align !3045
  %33 = getelementptr inbounds nuw %"class.std::_String_val", ptr %32, i32 0, i32 2, !dbg !3713
  store i64 15, ptr %33, align 8, !dbg !3713
  %34 = load i64, ptr %4, align 8, !dbg !3714
  %35 = load ptr, ptr %5, align 8, !dbg !3714
  %36 = load ptr, ptr %7, align 8, !dbg !3714, !nonnull !308, !align !3045
  %37 = getelementptr inbounds nuw %"class.std::_String_val", ptr %36, i32 0, i32 0, !dbg !3714
  %38 = getelementptr inbounds [16 x i8], ptr %37, i64 0, i64 0, !dbg !3714
  %39 = call noundef ptr @"?copy@?$_Char_traits@DH@std@@SAPEADQEADQEBD_K@Z"(ptr noundef %38, ptr noundef %35, i64 noundef %34) #4, !dbg !3714
  store i8 0, ptr %11, align 1, !dbg !3718
  %40 = load ptr, ptr %7, align 8, !dbg !3718, !nonnull !308, !align !3045
  %41 = getelementptr inbounds nuw %"class.std::_String_val", ptr %40, i32 0, i32 0, !dbg !3718
  %42 = load i64, ptr %4, align 8, !dbg !3718
  %43 = getelementptr inbounds nuw [16 x i8], ptr %41, i64 0, i64 %42, !dbg !3718
  call void @"?assign@?$_Narrow_char_traits@DH@std@@SAXAEADAEBD@Z"(ptr noundef nonnull align 1 dereferenceable(1) %43, ptr noundef nonnull align 1 dereferenceable(1) %11) #4, !dbg !3718
  call void @"?_Release@_Fake_proxy_ptr_impl@std@@QEAAXXZ"(ptr noundef nonnull align 1 dereferenceable(1) %10) #4, !dbg !3719
  br label %67, !dbg !3720

44:                                               ; preds = %22
    #dbg_declare(ptr %12, !3721, !DIExpression(), !3722)
  %45 = call noundef i64 @"?max_size@?$basic_string@DU?$char_traits@D@std@@V?$allocator@D@2@@std@@QEBA_KXZ"(ptr noundef nonnull align 8 dereferenceable(32) %15) #4, !dbg !3722
  %46 = load i64, ptr %4, align 8, !dbg !3722
  %47 = call noundef i64 @"?_Calculate_growth@?$basic_string@DU?$char_traits@D@std@@V?$allocator@D@2@@std@@CA_K_K00@Z"(i64 noundef %46, i64 noundef 15, i64 noundef %45) #4, !dbg !3722
  store i64 %47, ptr %12, align 8, !dbg !3722
    #dbg_declare(ptr %13, !3723, !DIExpression(), !3724)
  %48 = load ptr, ptr %8, align 8, !dbg !3724, !nonnull !308
  %49 = call noundef ptr @"??$_Allocate_for_capacity@$0A@@?$basic_string@DU?$char_traits@D@std@@V?$allocator@D@2@@std@@CAPEADAEAV?$allocator@D@1@AEA_K@Z"(ptr noundef nonnull align 1 dereferenceable(1) %48, ptr noundef nonnull align 8 dereferenceable(8) %12), !dbg !3724
  store ptr %49, ptr %13, align 8, !dbg !3724
  %50 = load ptr, ptr %7, align 8, !dbg !3725, !nonnull !308, !align !3045
  %51 = getelementptr inbounds nuw %"class.std::_String_val", ptr %50, i32 0, i32 0, !dbg !3725
  call void @"??$_Construct_in_place@PEADAEBQEAD@std@@YAXAEAPEADAEBQEAD@Z"(ptr noundef nonnull align 8 dereferenceable(8) %51, ptr noundef nonnull align 8 dereferenceable(8) %13) #4, !dbg !3725
  %52 = load i64, ptr %4, align 8, !dbg !3726
  %53 = load ptr, ptr %7, align 8, !dbg !3726, !nonnull !308, !align !3045
  %54 = getelementptr inbounds nuw %"class.std::_String_val", ptr %53, i32 0, i32 1, !dbg !3726
  store i64 %52, ptr %54, align 8, !dbg !3726
  %55 = load i64, ptr %12, align 8, !dbg !3727
  %56 = load ptr, ptr %7, align 8, !dbg !3727, !nonnull !308, !align !3045
  %57 = getelementptr inbounds nuw %"class.std::_String_val", ptr %56, i32 0, i32 2, !dbg !3727
  store i64 %55, ptr %57, align 8, !dbg !3727
  %58 = load i64, ptr %4, align 8, !dbg !3728
  %59 = load ptr, ptr %5, align 8, !dbg !3728
  %60 = load ptr, ptr %13, align 8, !dbg !3728
  %61 = call noundef ptr @"??$_Unfancy@D@std@@YAPEADPEAD@Z"(ptr noundef %60) #4, !dbg !3728
  %62 = call noundef ptr @"?copy@?$_Char_traits@DH@std@@SAPEADQEADQEBD_K@Z"(ptr noundef %61, ptr noundef %59, i64 noundef %58) #4, !dbg !3728
  store i8 0, ptr %14, align 1, !dbg !3732
  %63 = load ptr, ptr %13, align 8, !dbg !3732
  %64 = call noundef ptr @"??$_Unfancy@D@std@@YAPEADPEAD@Z"(ptr noundef %63) #4, !dbg !3732
  %65 = load i64, ptr %4, align 8, !dbg !3732
  %66 = getelementptr inbounds nuw i8, ptr %64, i64 %65, !dbg !3732
  call void @"?assign@?$_Narrow_char_traits@DH@std@@SAXAEADAEBD@Z"(ptr noundef nonnull align 1 dereferenceable(1) %66, ptr noundef nonnull align 1 dereferenceable(1) %14) #4, !dbg !3732
  call void @"?_Release@_Fake_proxy_ptr_impl@std@@QEAAXXZ"(ptr noundef nonnull align 1 dereferenceable(1) %10) #4, !dbg !3733
  br label %67, !dbg !3734

67:                                               ; preds = %44, %28
  ret void, !dbg !3734
}

; Function Attrs: mustprogress noinline nounwind optnone uwtable
define linkonce_odr dso_local void @"??1?$_Compressed_pair@V?$allocator@D@std@@V?$_String_val@U?$_Simple_types@D@std@@@2@$00@std@@QEAA@XZ"(ptr noundef nonnull align 8 dereferenceable(32) %0) unnamed_addr #2 comdat align 2 !dbg !3735 {
  %2 = alloca ptr, align 8
  store ptr %0, ptr %2, align 8
    #dbg_declare(ptr %2, !3739, !DIExpression(), !3740)
  %3 = load ptr, ptr %2, align 8
  %4 = getelementptr inbounds nuw %"class.std::_Compressed_pair", ptr %3, i32 0, i32 0, !dbg !3741
  call void @"??1?$_String_val@U?$_Simple_types@D@std@@@std@@QEAA@XZ"(ptr noundef nonnull align 8 dereferenceable(32) %4) #4, !dbg !3741
  ret void, !dbg !3743
}

; Function Attrs: mustprogress noinline nounwind optnone uwtable
define linkonce_odr dso_local noundef ptr @"??0?$allocator@D@std@@QEAA@XZ"(ptr noundef nonnull returned align 1 dereferenceable(1) %0) unnamed_addr #2 comdat align 2 !dbg !3744 {
  %2 = alloca ptr, align 8
  store ptr %0, ptr %2, align 8
    #dbg_declare(ptr %2, !3745, !DIExpression(), !3747)
  %3 = load ptr, ptr %2, align 8
  ret ptr %3, !dbg !3748
}

; Function Attrs: mustprogress noinline nounwind optnone uwtable
define linkonce_odr dso_local noundef ptr @"??0?$_String_val@U?$_Simple_types@D@std@@@std@@QEAA@XZ"(ptr noundef nonnull returned align 8 dereferenceable(32) %0) unnamed_addr #2 comdat align 2 !dbg !3749 {
  %2 = alloca ptr, align 8
  store ptr %0, ptr %2, align 8
    #dbg_declare(ptr %2, !3750, !DIExpression(), !3752)
  %3 = load ptr, ptr %2, align 8
  %4 = getelementptr inbounds nuw %"class.std::_String_val", ptr %3, i32 0, i32 0, !dbg !3753
  %5 = call noundef ptr @"??0_Bxty@?$_String_val@U?$_Simple_types@D@std@@@std@@QEAA@XZ"(ptr noundef nonnull align 8 dereferenceable(16) %4) #4, !dbg !3753
  %6 = getelementptr inbounds nuw %"class.std::_String_val", ptr %3, i32 0, i32 1, !dbg !3753
  store i64 0, ptr %6, align 8, !dbg !3753
  %7 = getelementptr inbounds nuw %"class.std::_String_val", ptr %3, i32 0, i32 2, !dbg !3753
  store i64 0, ptr %7, align 8, !dbg !3753
  ret ptr %3, !dbg !3753
}

; Function Attrs: mustprogress noinline nounwind optnone uwtable
define linkonce_odr dso_local noundef ptr @"??0_Bxty@?$_String_val@U?$_Simple_types@D@std@@@std@@QEAA@XZ"(ptr noundef nonnull returned align 8 dereferenceable(16) %0) unnamed_addr #2 comdat align 2 !dbg !3754 {
  %2 = alloca ptr, align 8
  store ptr %0, ptr %2, align 8
    #dbg_declare(ptr %2, !3755, !DIExpression(), !3757)
  %3 = load ptr, ptr %2, align 8
  call void @llvm.memset.p0.i64(ptr align 8 %3, i8 0, i64 16, i1 false), !dbg !3758
  ret ptr %3, !dbg !3758
}

; Function Attrs: nocallback nofree nounwind willreturn memory(argmem: write)
declare void @llvm.memset.p0.i64(ptr writeonly captures(none), i8, i64, i1 immarg) #8

; Function Attrs: mustprogress noinline nounwind optnone uwtable
define linkonce_odr dso_local noundef i64 @"?max_size@?$basic_string@DU?$char_traits@D@std@@V?$allocator@D@2@@std@@QEBA_KXZ"(ptr noundef nonnull align 8 dereferenceable(32) %0) #2 comdat align 2 !dbg !3759 {
  %2 = alloca ptr, align 8
  %3 = alloca i64, align 8
  %4 = alloca i64, align 8
  %5 = alloca i64, align 8
  %6 = alloca i64, align 8
  %7 = alloca i64, align 8
  store ptr %0, ptr %2, align 8
    #dbg_declare(ptr %2, !3760, !DIExpression(), !3762)
  %8 = load ptr, ptr %2, align 8
    #dbg_declare(ptr %3, !3763, !DIExpression(), !3764)
  %9 = call noundef nonnull align 1 dereferenceable(1) ptr @"?_Getal@?$basic_string@DU?$char_traits@D@std@@V?$allocator@D@2@@std@@AEBAAEBV?$allocator@D@2@XZ"(ptr noundef nonnull align 8 dereferenceable(32) %8) #4, !dbg !3764
  %10 = call noundef i64 @"?max_size@?$_Default_allocator_traits@V?$allocator@D@std@@@std@@SA_KAEBV?$allocator@D@2@@Z"(ptr noundef nonnull align 1 dereferenceable(1) %9) #4, !dbg !3764
  store i64 %10, ptr %3, align 8, !dbg !3764
    #dbg_declare(ptr %4, !3765, !DIExpression(), !3766)
  store i64 16, ptr %5, align 8, !dbg !3766
  %11 = call noundef nonnull align 8 dereferenceable(8) ptr @"??$max@_K@std@@YAAEB_KAEB_K0@Z"(ptr noundef nonnull align 8 dereferenceable(8) %3, ptr noundef nonnull align 8 dereferenceable(8) %5) #4, !dbg !3766
  %12 = load i64, ptr %11, align 8, !dbg !3766
  store i64 %12, ptr %4, align 8, !dbg !3766
  %13 = load i64, ptr %4, align 8, !dbg !3767
  %14 = sub i64 %13, 1, !dbg !3767
  store i64 %14, ptr %6, align 8, !dbg !3767
  %15 = call noundef i64 @"?max@?$numeric_limits@_J@std@@SA_JXZ"() #4, !dbg !3767
  store i64 %15, ptr %7, align 8, !dbg !3767
  %16 = call noundef nonnull align 8 dereferenceable(8) ptr @"??$min@_K@std@@YAAEB_KAEB_K0@Z"(ptr noundef nonnull align 8 dereferenceable(8) %7, ptr noundef nonnull align 8 dereferenceable(8) %6) #4, !dbg !3767
  %17 = load i64, ptr %16, align 8, !dbg !3767
  ret i64 %17, !dbg !3767
}

; Function Attrs: mustprogress noinline noreturn optnone uwtable
define linkonce_odr dso_local void @"?_Xlen_string@std@@YAXXZ"() #9 comdat !dbg !3768 {
  call void @"?_Xlength_error@std@@YAXPEBD@Z"(ptr noundef @"??_C@_0BA@JFNIOLAK@string?5too?5long?$AA@") #15, !dbg !3769
  unreachable, !dbg !3769
}

; Function Attrs: mustprogress noinline nounwind optnone uwtable
define linkonce_odr dso_local noundef nonnull align 1 dereferenceable(1) ptr @"?_Getal@?$basic_string@DU?$char_traits@D@std@@V?$allocator@D@2@@std@@AEAAAEAV?$allocator@D@2@XZ"(ptr noundef nonnull align 8 dereferenceable(32) %0) #2 comdat align 2 !dbg !3770 {
  %2 = alloca ptr, align 8
  store ptr %0, ptr %2, align 8
    #dbg_declare(ptr %2, !3771, !DIExpression(), !3772)
  %3 = load ptr, ptr %2, align 8
  %4 = getelementptr inbounds nuw %"class.std::basic_string", ptr %3, i32 0, i32 0, !dbg !3773
  %5 = call noundef nonnull align 1 dereferenceable(1) ptr @"?_Get_first@?$_Compressed_pair@V?$allocator@D@std@@V?$_String_val@U?$_Simple_types@D@std@@@2@$00@std@@QEAAAEAV?$allocator@D@2@XZ"(ptr noundef nonnull align 8 dereferenceable(32) %4) #4, !dbg !3773
  ret ptr %5, !dbg !3773
}

; Function Attrs: mustprogress noinline nounwind optnone uwtable
define linkonce_odr dso_local noundef ptr @"??0_Fake_proxy_ptr_impl@std@@QEAA@AEBU_Fake_allocator@1@AEBU_Container_base0@1@@Z"(ptr noundef nonnull returned align 1 dereferenceable(1) %0, ptr noundef nonnull align 1 dereferenceable(1) %1, ptr noundef nonnull align 1 dereferenceable(1) %2) unnamed_addr #2 comdat align 2 !dbg !3774 {
  %4 = alloca ptr, align 8
  %5 = alloca ptr, align 8
  %6 = alloca ptr, align 8
  store ptr %2, ptr %4, align 8
    #dbg_declare(ptr %4, !3775, !DIExpression(), !3776)
  store ptr %1, ptr %5, align 8
    #dbg_declare(ptr %5, !3777, !DIExpression(), !3776)
  store ptr %0, ptr %6, align 8
    #dbg_declare(ptr %6, !3778, !DIExpression(), !3780)
  %7 = load ptr, ptr %6, align 8
  ret ptr %7, !dbg !3776
}

; Function Attrs: mustprogress noinline nounwind optnone uwtable
define linkonce_odr dso_local noundef ptr @"?copy@?$_Char_traits@DH@std@@SAPEADQEADQEBD_K@Z"(ptr noundef %0, ptr noundef %1, i64 noundef %2) #2 comdat align 2 !dbg !3781 {
  %4 = alloca i64, align 8
  %5 = alloca ptr, align 8
  %6 = alloca ptr, align 8
  store i64 %2, ptr %4, align 8
    #dbg_declare(ptr %4, !3782, !DIExpression(), !3783)
  store ptr %1, ptr %5, align 8
    #dbg_declare(ptr %5, !3784, !DIExpression(), !3783)
  store ptr %0, ptr %6, align 8
    #dbg_declare(ptr %6, !3785, !DIExpression(), !3786)
  %7 = load ptr, ptr %6, align 8, !dbg !3787
  %8 = load ptr, ptr %5, align 8, !dbg !3787
  %9 = load i64, ptr %4, align 8, !dbg !3787
  %10 = mul i64 %9, 1, !dbg !3787
  call void @llvm.memcpy.p0.p0.i64(ptr align 1 %7, ptr align 1 %8, i64 %10, i1 false), !dbg !3787
  %11 = load ptr, ptr %6, align 8, !dbg !3788
  ret ptr %11, !dbg !3788
}

; Function Attrs: mustprogress noinline nounwind optnone uwtable
define linkonce_odr dso_local void @"?assign@?$_Narrow_char_traits@DH@std@@SAXAEADAEBD@Z"(ptr noundef nonnull align 1 dereferenceable(1) %0, ptr noundef nonnull align 1 dereferenceable(1) %1) #2 comdat align 2 !dbg !3789 {
  %3 = alloca ptr, align 8
  %4 = alloca ptr, align 8
  store ptr %1, ptr %3, align 8
    #dbg_declare(ptr %3, !3790, !DIExpression(), !3791)
  store ptr %0, ptr %4, align 8
    #dbg_declare(ptr %4, !3792, !DIExpression(), !3791)
  %5 = load ptr, ptr %3, align 8, !dbg !3793, !nonnull !308
  %6 = load i8, ptr %5, align 1, !dbg !3793
  %7 = load ptr, ptr %4, align 8, !dbg !3793, !nonnull !308
  store i8 %6, ptr %7, align 1, !dbg !3793
  ret void, !dbg !3794
}

; Function Attrs: mustprogress noinline nounwind optnone uwtable
define linkonce_odr dso_local void @"?_Release@_Fake_proxy_ptr_impl@std@@QEAAXXZ"(ptr noundef nonnull align 1 dereferenceable(1) %0) #2 comdat align 2 !dbg !3795 {
  %2 = alloca ptr, align 8
  store ptr %0, ptr %2, align 8
    #dbg_declare(ptr %2, !3796, !DIExpression(), !3797)
  %3 = load ptr, ptr %2, align 8
  ret void, !dbg !3798
}

; Function Attrs: mustprogress noinline nounwind optnone uwtable
define linkonce_odr dso_local noundef i64 @"?_Calculate_growth@?$basic_string@DU?$char_traits@D@std@@V?$allocator@D@2@@std@@CA_K_K00@Z"(i64 noundef %0, i64 noundef %1, i64 noundef %2) #2 comdat align 2 !dbg !3799 {
  %4 = alloca i64, align 8
  %5 = alloca i64, align 8
  %6 = alloca i64, align 8
  %7 = alloca i64, align 8
  %8 = alloca i64, align 8
  %9 = alloca i64, align 8
  store i64 %2, ptr %5, align 8
    #dbg_declare(ptr %5, !3800, !DIExpression(), !3801)
  store i64 %1, ptr %6, align 8
    #dbg_declare(ptr %6, !3802, !DIExpression(), !3801)
  store i64 %0, ptr %7, align 8
    #dbg_declare(ptr %7, !3803, !DIExpression(), !3801)
    #dbg_declare(ptr %8, !3804, !DIExpression(), !3805)
  %10 = load i64, ptr %7, align 8, !dbg !3805
  %11 = or i64 %10, 15, !dbg !3805
  store i64 %11, ptr %8, align 8, !dbg !3805
  %12 = load i64, ptr %8, align 8, !dbg !3806
  %13 = load i64, ptr %5, align 8, !dbg !3806
  %14 = icmp ugt i64 %12, %13, !dbg !3806
  br i1 %14, label %15, label %17, !dbg !3806

15:                                               ; preds = %3
  %16 = load i64, ptr %5, align 8, !dbg !3807
  store i64 %16, ptr %4, align 8, !dbg !3807
  br label %33, !dbg !3807

17:                                               ; preds = %3
  %18 = load i64, ptr %6, align 8, !dbg !3810
  %19 = load i64, ptr %5, align 8, !dbg !3810
  %20 = load i64, ptr %6, align 8, !dbg !3810
  %21 = udiv i64 %20, 2, !dbg !3810
  %22 = sub i64 %19, %21, !dbg !3810
  %23 = icmp ugt i64 %18, %22, !dbg !3810
  br i1 %23, label %24, label %26, !dbg !3810

24:                                               ; preds = %17
  %25 = load i64, ptr %5, align 8, !dbg !3811
  store i64 %25, ptr %4, align 8, !dbg !3811
  br label %33, !dbg !3811

26:                                               ; preds = %17
  %27 = load i64, ptr %6, align 8, !dbg !3814
  %28 = load i64, ptr %6, align 8, !dbg !3814
  %29 = udiv i64 %28, 2, !dbg !3814
  %30 = add i64 %27, %29, !dbg !3814
  store i64 %30, ptr %9, align 8, !dbg !3814
  %31 = call noundef nonnull align 8 dereferenceable(8) ptr @"??$max@_K@std@@YAAEB_KAEB_K0@Z"(ptr noundef nonnull align 8 dereferenceable(8) %8, ptr noundef nonnull align 8 dereferenceable(8) %9) #4, !dbg !3814
  %32 = load i64, ptr %31, align 8, !dbg !3814
  store i64 %32, ptr %4, align 8, !dbg !3814
  br label %33, !dbg !3814

33:                                               ; preds = %26, %24, %15
  %34 = load i64, ptr %4, align 8, !dbg !3815
  ret i64 %34, !dbg !3815
}

; Function Attrs: mustprogress noinline optnone uwtable
define linkonce_odr dso_local noundef ptr @"??$_Allocate_for_capacity@$0A@@?$basic_string@DU?$char_traits@D@std@@V?$allocator@D@2@@std@@CAPEADAEAV?$allocator@D@1@AEA_K@Z"(ptr noundef nonnull align 1 dereferenceable(1) %0, ptr noundef nonnull align 8 dereferenceable(8) %1) #0 comdat align 2 !dbg !3816 {
  %3 = alloca ptr, align 8
  %4 = alloca ptr, align 8
  %5 = alloca ptr, align 8
  store ptr %1, ptr %3, align 8
    #dbg_declare(ptr %3, !3823, !DIExpression(), !3824)
  store ptr %0, ptr %4, align 8
    #dbg_declare(ptr %4, !3825, !DIExpression(), !3824)
  %6 = load ptr, ptr %3, align 8, !dbg !3826, !nonnull !308, !align !3045
  %7 = load i64, ptr %6, align 8, !dbg !3826
  %8 = add i64 %7, 1, !dbg !3826
  store i64 %8, ptr %6, align 8, !dbg !3826
    #dbg_declare(ptr %5, !3827, !DIExpression(), !3828)
  %9 = load ptr, ptr %3, align 8, !dbg !3829, !nonnull !308, !align !3045
  %10 = load ptr, ptr %4, align 8, !dbg !3829, !nonnull !308
  %11 = call noundef ptr @"??$_Allocate_at_least_helper@V?$allocator@D@std@@@std@@YAPEADAEAV?$allocator@D@0@AEA_K@Z"(ptr noundef nonnull align 1 dereferenceable(1) %10, ptr noundef nonnull align 8 dereferenceable(8) %9), !dbg !3829
  store ptr %11, ptr %5, align 8, !dbg !3829
  %12 = load ptr, ptr %3, align 8, !dbg !3832, !nonnull !308, !align !3045
  %13 = load i64, ptr %12, align 8, !dbg !3832
  %14 = add i64 %13, -1, !dbg !3832
  store i64 %14, ptr %12, align 8, !dbg !3832
  %15 = load ptr, ptr %5, align 8, !dbg !3833
  ret ptr %15, !dbg !3833
}

; Function Attrs: mustprogress noinline nounwind optnone uwtable
define linkonce_odr dso_local void @"??$_Construct_in_place@PEADAEBQEAD@std@@YAXAEAPEADAEBQEAD@Z"(ptr noundef nonnull align 8 dereferenceable(8) %0, ptr noundef nonnull align 8 dereferenceable(8) %1) #2 comdat !dbg !3834 {
  %3 = alloca ptr, align 8
  %4 = alloca ptr, align 8
  store ptr %1, ptr %3, align 8
    #dbg_declare(ptr %3, !3844, !DIExpression(), !3845)
  store ptr %0, ptr %4, align 8
    #dbg_declare(ptr %4, !3846, !DIExpression(), !3845)
  %5 = load ptr, ptr %4, align 8, !dbg !3847, !nonnull !308, !align !3045
  %6 = load ptr, ptr %3, align 8, !dbg !3847, !nonnull !308, !align !3045
  %7 = load ptr, ptr %6, align 8, !dbg !3847
  store ptr %7, ptr %5, align 8, !dbg !3847
  ret void, !dbg !3849
}

; Function Attrs: mustprogress noinline nounwind optnone uwtable
define linkonce_odr dso_local noundef ptr @"??$_Unfancy@D@std@@YAPEADPEAD@Z"(ptr noundef %0) #2 comdat !dbg !3850 {
  %2 = alloca ptr, align 8
  store ptr %0, ptr %2, align 8
    #dbg_declare(ptr %2, !3851, !DIExpression(), !3852)
  %3 = load ptr, ptr %2, align 8, !dbg !3853
  ret ptr %3, !dbg !3853
}

; Function Attrs: mustprogress noinline nounwind optnone uwtable
define linkonce_odr dso_local noundef i64 @"?max_size@?$_Default_allocator_traits@V?$allocator@D@std@@@std@@SA_KAEBV?$allocator@D@2@@Z"(ptr noundef nonnull align 1 dereferenceable(1) %0) #2 comdat align 2 !dbg !3854 {
  %2 = alloca ptr, align 8
  store ptr %0, ptr %2, align 8
    #dbg_declare(ptr %2, !3855, !DIExpression(), !3856)
  ret i64 -1, !dbg !3857
}

; Function Attrs: mustprogress noinline nounwind optnone uwtable
define linkonce_odr dso_local noundef nonnull align 1 dereferenceable(1) ptr @"?_Getal@?$basic_string@DU?$char_traits@D@std@@V?$allocator@D@2@@std@@AEBAAEBV?$allocator@D@2@XZ"(ptr noundef nonnull align 8 dereferenceable(32) %0) #2 comdat align 2 !dbg !3858 {
  %2 = alloca ptr, align 8
  store ptr %0, ptr %2, align 8
    #dbg_declare(ptr %2, !3859, !DIExpression(), !3860)
  %3 = load ptr, ptr %2, align 8
  %4 = getelementptr inbounds nuw %"class.std::basic_string", ptr %3, i32 0, i32 0, !dbg !3861
  %5 = call noundef nonnull align 1 dereferenceable(1) ptr @"?_Get_first@?$_Compressed_pair@V?$allocator@D@std@@V?$_String_val@U?$_Simple_types@D@std@@@2@$00@std@@QEBAAEBV?$allocator@D@2@XZ"(ptr noundef nonnull align 8 dereferenceable(32) %4) #4, !dbg !3861
  ret ptr %5, !dbg !3861
}

; Function Attrs: mustprogress noinline nounwind optnone uwtable
define linkonce_odr dso_local noundef nonnull align 8 dereferenceable(8) ptr @"??$max@_K@std@@YAAEB_KAEB_K0@Z"(ptr noundef nonnull align 8 dereferenceable(8) %0, ptr noundef nonnull align 8 dereferenceable(8) %1) #2 comdat !dbg !3862 {
  %3 = alloca ptr, align 8
  %4 = alloca ptr, align 8
  store ptr %1, ptr %3, align 8
    #dbg_declare(ptr %3, !3870, !DIExpression(), !3871)
  store ptr %0, ptr %4, align 8
    #dbg_declare(ptr %4, !3872, !DIExpression(), !3871)
  %5 = load ptr, ptr %4, align 8, !dbg !3873, !nonnull !308, !align !3045
  %6 = load i64, ptr %5, align 8, !dbg !3873
  %7 = load ptr, ptr %3, align 8, !dbg !3873, !nonnull !308, !align !3045
  %8 = load i64, ptr %7, align 8, !dbg !3873
  %9 = icmp ult i64 %6, %8, !dbg !3873
  br i1 %9, label %10, label %12, !dbg !3873

10:                                               ; preds = %2
  %11 = load ptr, ptr %3, align 8, !dbg !3873, !nonnull !308, !align !3045
  br label %14, !dbg !3873

12:                                               ; preds = %2
  %13 = load ptr, ptr %4, align 8, !dbg !3873, !nonnull !308, !align !3045
  br label %14, !dbg !3873

14:                                               ; preds = %12, %10
  %15 = phi ptr [ %11, %10 ], [ %13, %12 ], !dbg !3873
  ret ptr %15, !dbg !3873
}

; Function Attrs: mustprogress noinline nounwind optnone uwtable
define linkonce_odr dso_local noundef nonnull align 8 dereferenceable(8) ptr @"??$min@_K@std@@YAAEB_KAEB_K0@Z"(ptr noundef nonnull align 8 dereferenceable(8) %0, ptr noundef nonnull align 8 dereferenceable(8) %1) #2 comdat !dbg !3874 {
  %3 = alloca ptr, align 8
  %4 = alloca ptr, align 8
  store ptr %1, ptr %3, align 8
    #dbg_declare(ptr %3, !3875, !DIExpression(), !3876)
  store ptr %0, ptr %4, align 8
    #dbg_declare(ptr %4, !3877, !DIExpression(), !3876)
  %5 = load ptr, ptr %3, align 8, !dbg !3878, !nonnull !308, !align !3045
  %6 = load i64, ptr %5, align 8, !dbg !3878
  %7 = load ptr, ptr %4, align 8, !dbg !3878, !nonnull !308, !align !3045
  %8 = load i64, ptr %7, align 8, !dbg !3878
  %9 = icmp ult i64 %6, %8, !dbg !3878
  br i1 %9, label %10, label %12, !dbg !3878

10:                                               ; preds = %2
  %11 = load ptr, ptr %3, align 8, !dbg !3878, !nonnull !308, !align !3045
  br label %14, !dbg !3878

12:                                               ; preds = %2
  %13 = load ptr, ptr %4, align 8, !dbg !3878, !nonnull !308, !align !3045
  br label %14, !dbg !3878

14:                                               ; preds = %12, %10
  %15 = phi ptr [ %11, %10 ], [ %13, %12 ], !dbg !3878
  ret ptr %15, !dbg !3878
}

; Function Attrs: mustprogress noinline nounwind optnone uwtable
define linkonce_odr dso_local noundef i64 @"?max@?$numeric_limits@_J@std@@SA_JXZ"() #2 comdat align 2 !dbg !3879 {
  ret i64 9223372036854775807, !dbg !3934
}

; Function Attrs: mustprogress noinline nounwind optnone uwtable
define linkonce_odr dso_local noundef nonnull align 1 dereferenceable(1) ptr @"?_Get_first@?$_Compressed_pair@V?$allocator@D@std@@V?$_String_val@U?$_Simple_types@D@std@@@2@$00@std@@QEBAAEBV?$allocator@D@2@XZ"(ptr noundef nonnull align 8 dereferenceable(32) %0) #2 comdat align 2 !dbg !3935 {
  %2 = alloca ptr, align 8
  store ptr %0, ptr %2, align 8
    #dbg_declare(ptr %2, !3936, !DIExpression(), !3938)
  %3 = load ptr, ptr %2, align 8
  ret ptr %3, !dbg !3939
}

; Function Attrs: noreturn
declare dso_local void @"?_Xlength_error@std@@YAXPEBD@Z"(ptr noundef) #10

; Function Attrs: mustprogress noinline nounwind optnone uwtable
define linkonce_odr dso_local noundef nonnull align 1 dereferenceable(1) ptr @"?_Get_first@?$_Compressed_pair@V?$allocator@D@std@@V?$_String_val@U?$_Simple_types@D@std@@@2@$00@std@@QEAAAEAV?$allocator@D@2@XZ"(ptr noundef nonnull align 8 dereferenceable(32) %0) #2 comdat align 2 !dbg !3940 {
  %2 = alloca ptr, align 8
  store ptr %0, ptr %2, align 8
    #dbg_declare(ptr %2, !3941, !DIExpression(), !3942)
  %3 = load ptr, ptr %2, align 8
  ret ptr %3, !dbg !3943
}

; Function Attrs: nocallback nofree nounwind willreturn memory(argmem: readwrite)
declare void @llvm.memcpy.p0.p0.i64(ptr noalias writeonly captures(none), ptr noalias readonly captures(none), i64, i1 immarg) #11

; Function Attrs: mustprogress noinline optnone uwtable
define linkonce_odr dso_local noundef ptr @"??$_Allocate_at_least_helper@V?$allocator@D@std@@@std@@YAPEADAEAV?$allocator@D@0@AEA_K@Z"(ptr noundef nonnull align 1 dereferenceable(1) %0, ptr noundef nonnull align 8 dereferenceable(8) %1) #0 comdat !dbg !3944 {
  %3 = alloca ptr, align 8
  %4 = alloca ptr, align 8
  store ptr %1, ptr %3, align 8
    #dbg_declare(ptr %3, !3948, !DIExpression(), !3949)
  store ptr %0, ptr %4, align 8
    #dbg_declare(ptr %4, !3950, !DIExpression(), !3949)
  %5 = load ptr, ptr %4, align 8, !dbg !3951, !nonnull !308
  %6 = load ptr, ptr %3, align 8, !dbg !3951, !nonnull !308, !align !3045
  %7 = load i64, ptr %6, align 8, !dbg !3951
  %8 = call noundef ptr @"?allocate@?$allocator@D@std@@QEAAPEAD_K@Z"(ptr noundef nonnull align 1 dereferenceable(1) %5, i64 noundef %7), !dbg !3951, !heapallocsite !5
  ret ptr %8, !dbg !3951
}

; Function Attrs: mustprogress noinline optnone uwtable
define linkonce_odr dso_local noundef ptr @"?allocate@?$allocator@D@std@@QEAAPEAD_K@Z"(ptr noundef nonnull align 1 dereferenceable(1) %0, i64 noundef %1) #0 comdat align 2 !dbg !3953 {
  %3 = alloca i64, align 8
  %4 = alloca ptr, align 8
  store i64 %1, ptr %3, align 8
    #dbg_declare(ptr %3, !3954, !DIExpression(), !3955)
  store ptr %0, ptr %4, align 8
    #dbg_declare(ptr %4, !3956, !DIExpression(), !3957)
  %5 = load ptr, ptr %4, align 8
  %6 = load i64, ptr %3, align 8, !dbg !3958
  %7 = call noundef i64 @"??$_Get_size_of_n@$00@std@@YA_K_K@Z"(i64 noundef %6), !dbg !3958
  %8 = call noundef ptr @"??$_Allocate@$0BA@U_Default_allocate_traits@std@@@std@@YAPEAX_K@Z"(i64 noundef %7), !dbg !3958, !heapallocsite !5
  ret ptr %8, !dbg !3958
}

; Function Attrs: mustprogress noinline optnone uwtable
define linkonce_odr dso_local noundef ptr @"??$_Allocate@$0BA@U_Default_allocate_traits@std@@@std@@YAPEAX_K@Z"(i64 noundef %0) #0 comdat !dbg !3959 {
  %2 = alloca ptr, align 8
  %3 = alloca i64, align 8
  store i64 %0, ptr %3, align 8
    #dbg_declare(ptr %3, !3968, !DIExpression(), !3969)
  %4 = load i64, ptr %3, align 8, !dbg !3970
  %5 = icmp eq i64 %4, 0, !dbg !3970
  br i1 %5, label %6, label %7, !dbg !3970

6:                                                ; preds = %1
  store ptr null, ptr %2, align 8, !dbg !3971
  br label %16, !dbg !3971

7:                                                ; preds = %1
  %8 = load i64, ptr %3, align 8, !dbg !3974
  %9 = icmp uge i64 %8, 4096, !dbg !3974
  br i1 %9, label %10, label %13, !dbg !3974

10:                                               ; preds = %7
  %11 = load i64, ptr %3, align 8, !dbg !3976
  %12 = call noundef ptr @"??$_Allocate_manually_vector_aligned@U_Default_allocate_traits@std@@@std@@YAPEAX_K@Z"(i64 noundef %11), !dbg !3976, !heapallocsite !308
  store ptr %12, ptr %2, align 8, !dbg !3976
  br label %16, !dbg !3976

13:                                               ; preds = %7
  %14 = load i64, ptr %3, align 8, !dbg !3979
  %15 = call noundef ptr @"?_Allocate@_Default_allocate_traits@std@@SAPEAX_K@Z"(i64 noundef %14), !dbg !3979, !heapallocsite !308
  store ptr %15, ptr %2, align 8, !dbg !3979
  br label %16, !dbg !3979

16:                                               ; preds = %13, %10, %6
  %17 = load ptr, ptr %2, align 8, !dbg !3980
  ret ptr %17, !dbg !3980
}

; Function Attrs: mustprogress noinline nounwind optnone uwtable
define linkonce_odr dso_local noundef i64 @"??$_Get_size_of_n@$00@std@@YA_K_K@Z"(i64 noundef %0) #2 comdat !dbg !3981 {
  %2 = alloca i64, align 8
  %3 = alloca i8, align 1
  store i64 %0, ptr %2, align 8
    #dbg_declare(ptr %2, !3986, !DIExpression(), !3987)
    #dbg_declare(ptr %3, !3988, !DIExpression(), !3989)
  store i8 0, ptr %3, align 1, !dbg !3989
  %4 = load i64, ptr %2, align 8, !dbg !3990
  %5 = mul i64 %4, 1, !dbg !3990
  ret i64 %5, !dbg !3990
}

; Function Attrs: mustprogress noinline optnone uwtable
define linkonce_odr dso_local noundef ptr @"??$_Allocate_manually_vector_aligned@U_Default_allocate_traits@std@@@std@@YAPEAX_K@Z"(i64 noundef %0) #0 comdat !dbg !3991 {
  %2 = alloca i64, align 8
  %3 = alloca i64, align 8
  %4 = alloca i64, align 8
  %5 = alloca ptr, align 8
  store i64 %0, ptr %2, align 8
    #dbg_declare(ptr %2, !3993, !DIExpression(), !3994)
    #dbg_declare(ptr %3, !3995, !DIExpression(), !3996)
  %6 = load i64, ptr %2, align 8, !dbg !3996
  %7 = add i64 39, %6, !dbg !3996
  store i64 %7, ptr %3, align 8, !dbg !3996
  %8 = load i64, ptr %3, align 8, !dbg !3997
  %9 = load i64, ptr %2, align 8, !dbg !3997
  %10 = icmp ule i64 %8, %9, !dbg !3997
  br i1 %10, label %11, label %12, !dbg !3997

11:                                               ; preds = %1
  call void @"?_Throw_bad_array_new_length@std@@YAXXZ"() #15, !dbg !3998
  unreachable, !dbg !3998

12:                                               ; preds = %1
    #dbg_declare(ptr %4, !4001, !DIExpression(), !4002)
  %13 = load i64, ptr %3, align 8, !dbg !4002
  %14 = call noundef ptr @"?_Allocate@_Default_allocate_traits@std@@SAPEAX_K@Z"(i64 noundef %13), !dbg !4002, !heapallocsite !308
  %15 = ptrtoint ptr %14 to i64, !dbg !4002
  store i64 %15, ptr %4, align 8, !dbg !4002
  br label %16, !dbg !4003

16:                                               ; preds = %12
  %17 = load i64, ptr %4, align 8, !dbg !4004
  %18 = icmp ne i64 %17, 0, !dbg !4004
  br i1 %18, label %19, label %20, !dbg !4004

19:                                               ; preds = %16
  br label %23, !dbg !4006

20:                                               ; preds = %16
  br label %21, !dbg !4009

21:                                               ; preds = %20
  call void @_invalid_parameter_noinfo_noreturn() #15, !dbg !4011
  unreachable, !dbg !4011

22:                                               ; No predecessors!
  br label %23, !dbg !4009

23:                                               ; preds = %22, %19
  br label %24, !dbg !4004

24:                                               ; preds = %23
    #dbg_declare(ptr %5, !4013, !DIExpression(), !4015)
  %25 = load i64, ptr %4, align 8, !dbg !4015
  %26 = add i64 %25, 39, !dbg !4015
  %27 = and i64 %26, -32, !dbg !4015
  %28 = inttoptr i64 %27 to ptr, !dbg !4015
  store ptr %28, ptr %5, align 8, !dbg !4015
  %29 = load i64, ptr %4, align 8, !dbg !4016
  %30 = load ptr, ptr %5, align 8, !dbg !4016
  %31 = getelementptr inbounds i64, ptr %30, i64 -1, !dbg !4016
  store i64 %29, ptr %31, align 8, !dbg !4016
  %32 = load ptr, ptr %5, align 8, !dbg !4017
  ret ptr %32, !dbg !4017
}

; Function Attrs: mustprogress noinline optnone uwtable
define linkonce_odr dso_local noundef ptr @"?_Allocate@_Default_allocate_traits@std@@SAPEAX_K@Z"(i64 noundef %0) #0 comdat align 2 !dbg !4018 {
  %2 = alloca i64, align 8
  store i64 %0, ptr %2, align 8
    #dbg_declare(ptr %2, !4019, !DIExpression(), !4020)
  %3 = load i64, ptr %2, align 8, !dbg !4021
  %4 = call noalias noundef nonnull ptr @"??2@YAPEAX_K@Z"(i64 noundef %3) #17, !dbg !4021, !heapallocsite !308
  ret ptr %4, !dbg !4021
}

; Function Attrs: mustprogress noinline noreturn optnone uwtable
define linkonce_odr dso_local void @"?_Throw_bad_array_new_length@std@@YAXXZ"() #9 comdat !dbg !4022 {
  %1 = alloca %"class.std::bad_array_new_length", align 8
  %2 = call noundef ptr @"??0bad_array_new_length@std@@QEAA@XZ"(ptr noundef nonnull align 8 dereferenceable(24) %1) #4, !dbg !4023
  call void @_CxxThrowException(ptr %1, ptr @"_TI3?AVbad_array_new_length@std@@") #15, !dbg !4023
  unreachable, !dbg !4023
}

; Function Attrs: noreturn
declare dso_local void @_invalid_parameter_noinfo_noreturn() #10

; Function Attrs: mustprogress noinline nounwind optnone uwtable
define linkonce_odr dso_local noundef ptr @"??0bad_array_new_length@std@@QEAA@XZ"(ptr noundef nonnull returned align 8 dereferenceable(24) %0) unnamed_addr #2 comdat align 2 !dbg !4024 {
  %2 = alloca ptr, align 8
  store ptr %0, ptr %2, align 8
    #dbg_declare(ptr %2, !4042, !DIExpression(), !4044)
  %3 = load ptr, ptr %2, align 8
  %4 = call noundef ptr @"??0bad_alloc@std@@AEAA@QEBD@Z"(ptr noundef nonnull align 8 dereferenceable(24) %3, ptr noundef @"??_C@_0BF@KINCDENJ@bad?5array?5new?5length?$AA@") #4, !dbg !4045
  store ptr @"??_7bad_array_new_length@std@@6B@", ptr %3, align 8, !dbg !4045
  ret ptr %3, !dbg !4046
}

; Function Attrs: mustprogress noinline nounwind optnone uwtable
define linkonce_odr dso_local noundef ptr @"??0bad_array_new_length@std@@QEAA@AEBV01@@Z"(ptr noundef nonnull returned align 8 dereferenceable(24) %0, ptr noundef nonnull align 8 dereferenceable(24) %1) unnamed_addr #2 comdat align 2 !dbg !4047 {
  %3 = alloca ptr, align 8
  %4 = alloca ptr, align 8
  store ptr %1, ptr %3, align 8
    #dbg_declare(ptr %3, !4053, !DIExpression(), !4054)
  store ptr %0, ptr %4, align 8
    #dbg_declare(ptr %4, !4055, !DIExpression(), !4054)
  %5 = load ptr, ptr %4, align 8
  %6 = load ptr, ptr %3, align 8, !dbg !4056, !nonnull !308, !align !3045
  %7 = call noundef ptr @"??0bad_alloc@std@@QEAA@AEBV01@@Z"(ptr noundef nonnull align 8 dereferenceable(24) %5, ptr noundef nonnull align 8 dereferenceable(24) %6) #4, !dbg !4056
  store ptr @"??_7bad_array_new_length@std@@6B@", ptr %5, align 8, !dbg !4056
  ret ptr %5, !dbg !4056
}

; Function Attrs: mustprogress noinline nounwind optnone uwtable
define linkonce_odr dso_local noundef ptr @"??0bad_alloc@std@@QEAA@AEBV01@@Z"(ptr noundef nonnull returned align 8 dereferenceable(24) %0, ptr noundef nonnull align 8 dereferenceable(24) %1) unnamed_addr #2 comdat align 2 !dbg !4057 {
  %3 = alloca ptr, align 8
  %4 = alloca ptr, align 8
  store ptr %1, ptr %3, align 8
    #dbg_declare(ptr %3, !4063, !DIExpression(), !4064)
  store ptr %0, ptr %4, align 8
    #dbg_declare(ptr %4, !4065, !DIExpression(), !4064)
  %5 = load ptr, ptr %4, align 8
  %6 = load ptr, ptr %3, align 8, !dbg !4067, !nonnull !308, !align !3045
  %7 = call noundef ptr @"??0exception@std@@QEAA@AEBV01@@Z"(ptr noundef nonnull align 8 dereferenceable(24) %5, ptr noundef nonnull align 8 dereferenceable(24) %6) #4, !dbg !4067
  store ptr @"??_7bad_alloc@std@@6B@", ptr %5, align 8, !dbg !4067
  ret ptr %5, !dbg !4067
}

; Function Attrs: mustprogress noinline nounwind optnone uwtable
define linkonce_odr dso_local void @"??1bad_array_new_length@std@@UEAA@XZ"(ptr noundef nonnull align 8 dereferenceable(24) %0) unnamed_addr #2 comdat align 2 !dbg !4068 {
  %2 = alloca ptr, align 8
  store ptr %0, ptr %2, align 8
    #dbg_declare(ptr %2, !4070, !DIExpression(), !4071)
  %3 = load ptr, ptr %2, align 8
  call void @"??1bad_alloc@std@@UEAA@XZ"(ptr noundef nonnull align 8 dereferenceable(24) %3) #4, !dbg !4072
  ret void, !dbg !4074
}

; Function Attrs: mustprogress noinline nounwind optnone uwtable
define linkonce_odr dso_local noundef ptr @"??0bad_alloc@std@@AEAA@QEBD@Z"(ptr noundef nonnull returned align 8 dereferenceable(24) %0, ptr noundef %1) unnamed_addr #2 comdat align 2 !dbg !4075 {
  %3 = alloca ptr, align 8
  %4 = alloca ptr, align 8
  store ptr %1, ptr %3, align 8
    #dbg_declare(ptr %3, !4076, !DIExpression(), !4077)
  store ptr %0, ptr %4, align 8
    #dbg_declare(ptr %4, !4078, !DIExpression(), !4079)
  %5 = load ptr, ptr %4, align 8
  %6 = load ptr, ptr %3, align 8, !dbg !4080
  %7 = call noundef ptr @"??0exception@std@@QEAA@QEBDH@Z"(ptr noundef nonnull align 8 dereferenceable(24) %5, ptr noundef %6, i32 noundef 1) #4, !dbg !4080
  store ptr @"??_7bad_alloc@std@@6B@", ptr %5, align 8, !dbg !4080
  ret ptr %5, !dbg !4081
}

; Function Attrs: mustprogress noinline nounwind optnone uwtable
define linkonce_odr dso_local noundef ptr @"??_Gbad_array_new_length@std@@UEAAPEAXI@Z"(ptr noundef nonnull align 8 dereferenceable(24) %0, i32 noundef %1) unnamed_addr #2 comdat align 2 !dbg !4082 {
  %3 = alloca ptr, align 8
  %4 = alloca i32, align 4
  %5 = alloca ptr, align 8
  store i32 %1, ptr %4, align 4
    #dbg_declare(ptr %4, !4085, !DIExpression(), !4086)
  store ptr %0, ptr %5, align 8
    #dbg_declare(ptr %5, !4087, !DIExpression(), !4086)
  %6 = load ptr, ptr %5, align 8
  store ptr %6, ptr %3, align 8
  %7 = load i32, ptr %4, align 4
  call void @"??1bad_array_new_length@std@@UEAA@XZ"(ptr noundef nonnull align 8 dereferenceable(24) %6) #4, !dbg !4088
  %8 = icmp eq i32 %7, 0, !dbg !4088
  br i1 %8, label %10, label %9, !dbg !4088

9:                                                ; preds = %2
  call void @"??3@YAXPEAX_K@Z"(ptr noundef %6, i64 noundef 24) #16, !dbg !4088
  br label %10, !dbg !4088

10:                                               ; preds = %9, %2
  %11 = load ptr, ptr %3, align 8, !dbg !4088
  ret ptr %11, !dbg !4088
}

; Function Attrs: mustprogress noinline nounwind optnone uwtable
define linkonce_odr dso_local noundef ptr @"?what@exception@std@@UEBAPEBDXZ"(ptr noundef nonnull align 8 dereferenceable(24) %0) unnamed_addr #2 comdat align 2 !dbg !4089 {
  %2 = alloca ptr, align 8
  store ptr %0, ptr %2, align 8
    #dbg_declare(ptr %2, !4090, !DIExpression(), !4092)
  %3 = load ptr, ptr %2, align 8
  %4 = getelementptr inbounds nuw %"class.std::exception", ptr %3, i32 0, i32 1, !dbg !4093
  %5 = getelementptr inbounds nuw %struct.__std_exception_data, ptr %4, i32 0, i32 0, !dbg !4093
  %6 = load ptr, ptr %5, align 8, !dbg !4093
  %7 = icmp ne ptr %6, null, !dbg !4093
  br i1 %7, label %8, label %12, !dbg !4093

8:                                                ; preds = %1
  %9 = getelementptr inbounds nuw %"class.std::exception", ptr %3, i32 0, i32 1, !dbg !4093
  %10 = getelementptr inbounds nuw %struct.__std_exception_data, ptr %9, i32 0, i32 0, !dbg !4093
  %11 = load ptr, ptr %10, align 8, !dbg !4093
  br label %13, !dbg !4093

12:                                               ; preds = %1
  br label %13, !dbg !4093

13:                                               ; preds = %12, %8
  %14 = phi ptr [ %11, %8 ], [ @"??_C@_0BC@EOODALEL@Unknown?5exception?$AA@", %12 ], !dbg !4093
  ret ptr %14, !dbg !4093
}

; Function Attrs: mustprogress noinline nounwind optnone uwtable
define linkonce_odr dso_local noundef ptr @"??0exception@std@@QEAA@QEBDH@Z"(ptr noundef nonnull returned align 8 dereferenceable(24) %0, ptr noundef %1, i32 noundef %2) unnamed_addr #2 comdat align 2 !dbg !4094 {
  %4 = alloca i32, align 4
  %5 = alloca ptr, align 8
  %6 = alloca ptr, align 8
  store i32 %2, ptr %4, align 4
    #dbg_declare(ptr %4, !4095, !DIExpression(), !4096)
  store ptr %1, ptr %5, align 8
    #dbg_declare(ptr %5, !4097, !DIExpression(), !4096)
  store ptr %0, ptr %6, align 8
    #dbg_declare(ptr %6, !4098, !DIExpression(), !4099)
  %7 = load ptr, ptr %6, align 8
  store ptr @"??_7exception@std@@6B@", ptr %7, align 8, !dbg !4100
  %8 = getelementptr inbounds nuw %"class.std::exception", ptr %7, i32 0, i32 1, !dbg !4100
  call void @llvm.memset.p0.i64(ptr align 8 %8, i8 0, i64 16, i1 false), !dbg !4100
  %9 = load ptr, ptr %5, align 8, !dbg !4101
  %10 = getelementptr inbounds nuw %"class.std::exception", ptr %7, i32 0, i32 1, !dbg !4101
  %11 = getelementptr inbounds nuw %struct.__std_exception_data, ptr %10, i32 0, i32 0, !dbg !4101
  store ptr %9, ptr %11, align 8, !dbg !4101
  ret ptr %7, !dbg !4103
}

; Function Attrs: mustprogress noinline nounwind optnone uwtable
define linkonce_odr dso_local noundef ptr @"??_Gbad_alloc@std@@UEAAPEAXI@Z"(ptr noundef nonnull align 8 dereferenceable(24) %0, i32 noundef %1) unnamed_addr #2 comdat align 2 !dbg !4104 {
  %3 = alloca ptr, align 8
  %4 = alloca i32, align 4
  %5 = alloca ptr, align 8
  store i32 %1, ptr %4, align 4
    #dbg_declare(ptr %4, !4108, !DIExpression(), !4109)
  store ptr %0, ptr %5, align 8
    #dbg_declare(ptr %5, !4110, !DIExpression(), !4109)
  %6 = load ptr, ptr %5, align 8
  store ptr %6, ptr %3, align 8
  %7 = load i32, ptr %4, align 4
  call void @"??1bad_alloc@std@@UEAA@XZ"(ptr noundef nonnull align 8 dereferenceable(24) %6) #4, !dbg !4111
  %8 = icmp eq i32 %7, 0, !dbg !4111
  br i1 %8, label %10, label %9, !dbg !4111

9:                                                ; preds = %2
  call void @"??3@YAXPEAX_K@Z"(ptr noundef %6, i64 noundef 24) #16, !dbg !4111
  br label %10, !dbg !4111

10:                                               ; preds = %9, %2
  %11 = load ptr, ptr %3, align 8, !dbg !4111
  ret ptr %11, !dbg !4111
}

; Function Attrs: mustprogress noinline nounwind optnone uwtable
define linkonce_odr dso_local noundef ptr @"??_Gexception@std@@UEAAPEAXI@Z"(ptr noundef nonnull align 8 dereferenceable(24) %0, i32 noundef %1) unnamed_addr #2 comdat align 2 !dbg !4112 {
  %3 = alloca ptr, align 8
  %4 = alloca i32, align 4
  %5 = alloca ptr, align 8
  store i32 %1, ptr %4, align 4
    #dbg_declare(ptr %4, !4115, !DIExpression(), !4116)
  store ptr %0, ptr %5, align 8
    #dbg_declare(ptr %5, !4117, !DIExpression(), !4116)
  %6 = load ptr, ptr %5, align 8
  store ptr %6, ptr %3, align 8
  %7 = load i32, ptr %4, align 4
  call void @"??1exception@std@@UEAA@XZ"(ptr noundef nonnull align 8 dereferenceable(24) %6) #4, !dbg !4118
  %8 = icmp eq i32 %7, 0, !dbg !4118
  br i1 %8, label %10, label %9, !dbg !4118

9:                                                ; preds = %2
  call void @"??3@YAXPEAX_K@Z"(ptr noundef %6, i64 noundef 24) #16, !dbg !4118
  br label %10, !dbg !4118

10:                                               ; preds = %9, %2
  %11 = load ptr, ptr %3, align 8, !dbg !4119
  ret ptr %11, !dbg !4119
}

; Function Attrs: mustprogress noinline nounwind optnone uwtable
define linkonce_odr dso_local void @"??1exception@std@@UEAA@XZ"(ptr noundef nonnull align 8 dereferenceable(24) %0) unnamed_addr #2 comdat align 2 personality ptr @__CxxFrameHandler3 !dbg !4120 {
  %2 = alloca ptr, align 8
  store ptr %0, ptr %2, align 8
    #dbg_declare(ptr %2, !4121, !DIExpression(), !4122)
  %3 = load ptr, ptr %2, align 8
  store ptr @"??_7exception@std@@6B@", ptr %3, align 8, !dbg !4123
  %4 = getelementptr inbounds nuw %"class.std::exception", ptr %3, i32 0, i32 1, !dbg !4124
  invoke void @__std_exception_destroy(ptr noundef %4)
          to label %5 unwind label %6, !dbg !4124

5:                                                ; preds = %1
  ret void, !dbg !4126

6:                                                ; preds = %1
  %7 = cleanuppad within none [], !dbg !4124
  call void @__std_terminate() #14 [ "funclet"(token %7) ], !dbg !4124
  unreachable, !dbg !4124
}

declare dso_local void @__std_exception_destroy(ptr noundef) #7

; Function Attrs: mustprogress noinline nounwind optnone uwtable
define linkonce_odr dso_local void @"??1bad_alloc@std@@UEAA@XZ"(ptr noundef nonnull align 8 dereferenceable(24) %0) unnamed_addr #2 comdat align 2 !dbg !4127 {
  %2 = alloca ptr, align 8
  store ptr %0, ptr %2, align 8
    #dbg_declare(ptr %2, !4128, !DIExpression(), !4129)
  %3 = load ptr, ptr %2, align 8
  call void @"??1exception@std@@UEAA@XZ"(ptr noundef nonnull align 8 dereferenceable(24) %3) #4, !dbg !4130
  ret void, !dbg !4132
}

; Function Attrs: nobuiltin allocsize(0)
declare dso_local noundef nonnull ptr @"??2@YAPEAX_K@Z"(i64 noundef) #12

; Function Attrs: mustprogress noinline nounwind optnone uwtable
define linkonce_odr dso_local void @"??1?$_String_val@U?$_Simple_types@D@std@@@std@@QEAA@XZ"(ptr noundef nonnull align 8 dereferenceable(32) %0) unnamed_addr #2 comdat align 2 !dbg !4133 {
  %2 = alloca ptr, align 8
  store ptr %0, ptr %2, align 8
    #dbg_declare(ptr %2, !4135, !DIExpression(), !4136)
  %3 = load ptr, ptr %2, align 8
  %4 = getelementptr inbounds nuw %"class.std::_String_val", ptr %3, i32 0, i32 0, !dbg !4137
  call void @"??1_Bxty@?$_String_val@U?$_Simple_types@D@std@@@std@@QEAA@XZ"(ptr noundef nonnull align 8 dereferenceable(16) %4) #4, !dbg !4137
  ret void, !dbg !4139
}

; Function Attrs: mustprogress noinline nounwind optnone uwtable
define linkonce_odr dso_local void @"??1_Bxty@?$_String_val@U?$_Simple_types@D@std@@@std@@QEAA@XZ"(ptr noundef nonnull align 8 dereferenceable(16) %0) unnamed_addr #2 comdat align 2 !dbg !4140 {
  %2 = alloca ptr, align 8
  store ptr %0, ptr %2, align 8
    #dbg_declare(ptr %2, !4141, !DIExpression(), !4142)
  %3 = load ptr, ptr %2, align 8
  ret void, !dbg !4143
}

; Function Attrs: mustprogress noinline nounwind optnone uwtable
define linkonce_odr dso_local noundef i64 @"??$_Convert_size@_K_K@std@@YA_K_K@Z"(i64 noundef %0) #2 comdat !dbg !4144 {
  %2 = alloca i64, align 8
  store i64 %0, ptr %2, align 8
    #dbg_declare(ptr %2, !4150, !DIExpression(), !4151)
  %3 = load i64, ptr %2, align 8, !dbg !4152
  ret i64 %3, !dbg !4152
}

; Function Attrs: mustprogress noinline nounwind optnone uwtable
define linkonce_odr dso_local noundef ptr @"??0error_condition@std@@QEAA@HAEBVerror_category@1@@Z"(ptr noundef nonnull returned align 8 dereferenceable(16) %0, i32 noundef %1, ptr noundef nonnull align 8 dereferenceable(16) %2) unnamed_addr #2 comdat align 2 !dbg !4153 {
  %4 = alloca ptr, align 8
  %5 = alloca i32, align 4
  %6 = alloca ptr, align 8
  store ptr %2, ptr %4, align 8
    #dbg_declare(ptr %4, !4154, !DIExpression(), !4155)
  store i32 %1, ptr %5, align 4
    #dbg_declare(ptr %5, !4156, !DIExpression(), !4155)
  store ptr %0, ptr %6, align 8
    #dbg_declare(ptr %6, !4157, !DIExpression(), !4159)
  %7 = load ptr, ptr %6, align 8
  %8 = getelementptr inbounds nuw %"class.std::error_condition", ptr %7, i32 0, i32 0, !dbg !4155
  %9 = load i32, ptr %5, align 4, !dbg !4155
  store i32 %9, ptr %8, align 8, !dbg !4155
  %10 = getelementptr inbounds nuw %"class.std::error_condition", ptr %7, i32 0, i32 1, !dbg !4155
  %11 = load ptr, ptr %4, align 8, !dbg !4155, !nonnull !308, !align !3045
  store ptr %11, ptr %10, align 8, !dbg !4155
  ret ptr %7, !dbg !4155
}

; Function Attrs: mustprogress noinline nounwind optnone uwtable
define linkonce_odr dso_local noundef zeroext i1 @"??8error_category@std@@QEBA_NAEBV01@@Z"(ptr noundef nonnull align 8 dereferenceable(16) %0, ptr noundef nonnull align 8 dereferenceable(16) %1) #2 comdat align 2 !dbg !4160 {
  %3 = alloca ptr, align 8
  %4 = alloca ptr, align 8
  store ptr %1, ptr %3, align 8
    #dbg_declare(ptr %3, !4161, !DIExpression(), !4162)
  store ptr %0, ptr %4, align 8
    #dbg_declare(ptr %4, !4163, !DIExpression(), !4164)
  %5 = load ptr, ptr %4, align 8
  %6 = getelementptr inbounds nuw %"class.std::error_category", ptr %5, i32 0, i32 1, !dbg !4165
  %7 = call noundef i64 @"??$_Bit_cast@_KT_Addr_storage@error_category@std@@$0A@@std@@YA_KAEBT_Addr_storage@error_category@0@@Z"(ptr noundef nonnull align 8 dereferenceable(8) %6) #4, !dbg !4165
  %8 = load ptr, ptr %3, align 8, !dbg !4165, !nonnull !308, !align !3045
  %9 = getelementptr inbounds nuw %"class.std::error_category", ptr %8, i32 0, i32 1, !dbg !4165
  %10 = call noundef i64 @"??$_Bit_cast@_KT_Addr_storage@error_category@std@@$0A@@std@@YA_KAEBT_Addr_storage@error_category@0@@Z"(ptr noundef nonnull align 8 dereferenceable(8) %9) #4, !dbg !4165
  %11 = icmp eq i64 %7, %10, !dbg !4165
  ret i1 %11, !dbg !4165
}

; Function Attrs: mustprogress noinline nounwind optnone uwtable
define linkonce_odr dso_local noundef nonnull align 8 dereferenceable(16) ptr @"?category@error_code@std@@QEBAAEBVerror_category@2@XZ"(ptr noundef nonnull align 8 dereferenceable(16) %0) #2 comdat align 2 !dbg !4166 {
  %2 = alloca ptr, align 8
  store ptr %0, ptr %2, align 8
    #dbg_declare(ptr %2, !4167, !DIExpression(), !4169)
  %3 = load ptr, ptr %2, align 8
  %4 = getelementptr inbounds nuw %"class.std::error_code", ptr %3, i32 0, i32 1, !dbg !4170
  %5 = load ptr, ptr %4, align 8, !dbg !4170
  ret ptr %5, !dbg !4170
}

; Function Attrs: mustprogress noinline nounwind optnone uwtable
define linkonce_odr dso_local noundef i32 @"?value@error_code@std@@QEBAHXZ"(ptr noundef nonnull align 8 dereferenceable(16) %0) #2 comdat align 2 !dbg !4171 {
  %2 = alloca ptr, align 8
  store ptr %0, ptr %2, align 8
    #dbg_declare(ptr %2, !4172, !DIExpression(), !4173)
  %3 = load ptr, ptr %2, align 8
  %4 = getelementptr inbounds nuw %"class.std::error_code", ptr %3, i32 0, i32 0, !dbg !4174
  %5 = load i32, ptr %4, align 8, !dbg !4174
  ret i32 %5, !dbg !4174
}

; Function Attrs: mustprogress noinline nounwind optnone uwtable
define linkonce_odr dso_local noundef i64 @"??$_Bit_cast@_KT_Addr_storage@error_category@std@@$0A@@std@@YA_KAEBT_Addr_storage@error_category@0@@Z"(ptr noundef nonnull align 8 dereferenceable(8) %0) #2 comdat !dbg !4175 {
  %2 = alloca ptr, align 8
  store ptr %0, ptr %2, align 8
    #dbg_declare(ptr %2, !4184, !DIExpression(), !4185)
  %3 = load ptr, ptr %2, align 8, !dbg !4186, !nonnull !308, !align !3045
  %4 = load i64, ptr %3, align 8, !dbg !4186
  ret i64 %4, !dbg !4186
}

; Function Attrs: mustprogress noinline nounwind optnone uwtable
define linkonce_odr dso_local noundef zeroext i1 @"??8std@@YA_NAEBVerror_condition@0@0@Z"(ptr noundef nonnull align 8 dereferenceable(16) %0, ptr noundef nonnull align 8 dereferenceable(16) %1) #2 comdat !dbg !4187 {
  %3 = alloca ptr, align 8
  %4 = alloca ptr, align 8
  store ptr %1, ptr %3, align 8
    #dbg_declare(ptr %3, !4190, !DIExpression(), !4191)
  store ptr %0, ptr %4, align 8
    #dbg_declare(ptr %4, !4192, !DIExpression(), !4191)
  %5 = load ptr, ptr %4, align 8, !dbg !4193, !nonnull !308, !align !3045
  %6 = call noundef nonnull align 8 dereferenceable(16) ptr @"?category@error_condition@std@@QEBAAEBVerror_category@2@XZ"(ptr noundef nonnull align 8 dereferenceable(16) %5) #4, !dbg !4193
  %7 = load ptr, ptr %3, align 8, !dbg !4193, !nonnull !308, !align !3045
  %8 = call noundef nonnull align 8 dereferenceable(16) ptr @"?category@error_condition@std@@QEBAAEBVerror_category@2@XZ"(ptr noundef nonnull align 8 dereferenceable(16) %7) #4, !dbg !4193
  %9 = call noundef zeroext i1 @"??8error_category@std@@QEBA_NAEBV01@@Z"(ptr noundef nonnull align 8 dereferenceable(16) %6, ptr noundef nonnull align 8 dereferenceable(16) %8) #4, !dbg !4193
  br i1 %9, label %10, label %16, !dbg !4193

10:                                               ; preds = %2
  %11 = load ptr, ptr %4, align 8, !dbg !4193, !nonnull !308, !align !3045
  %12 = call noundef i32 @"?value@error_condition@std@@QEBAHXZ"(ptr noundef nonnull align 8 dereferenceable(16) %11) #4, !dbg !4193
  %13 = load ptr, ptr %3, align 8, !dbg !4193, !nonnull !308, !align !3045
  %14 = call noundef i32 @"?value@error_condition@std@@QEBAHXZ"(ptr noundef nonnull align 8 dereferenceable(16) %13) #4, !dbg !4193
  %15 = icmp eq i32 %12, %14, !dbg !4193
  br label %16, !dbg !4193

16:                                               ; preds = %10, %2
  %17 = phi i1 [ false, %2 ], [ %15, %10 ], !dbg !4193
  ret i1 %17, !dbg !4193
}

; Function Attrs: mustprogress noinline nounwind optnone uwtable
define linkonce_odr dso_local noundef nonnull align 8 dereferenceable(16) ptr @"?category@error_condition@std@@QEBAAEBVerror_category@2@XZ"(ptr noundef nonnull align 8 dereferenceable(16) %0) #2 comdat align 2 !dbg !4194 {
  %2 = alloca ptr, align 8
  store ptr %0, ptr %2, align 8
    #dbg_declare(ptr %2, !4195, !DIExpression(), !4197)
  %3 = load ptr, ptr %2, align 8
  %4 = getelementptr inbounds nuw %"class.std::error_condition", ptr %3, i32 0, i32 1, !dbg !4198
  %5 = load ptr, ptr %4, align 8, !dbg !4198
  ret ptr %5, !dbg !4198
}

; Function Attrs: mustprogress noinline nounwind optnone uwtable
define linkonce_odr dso_local noundef i32 @"?value@error_condition@std@@QEBAHXZ"(ptr noundef nonnull align 8 dereferenceable(16) %0) #2 comdat align 2 !dbg !4199 {
  %2 = alloca ptr, align 8
  store ptr %0, ptr %2, align 8
    #dbg_declare(ptr %2, !4200, !DIExpression(), !4201)
  %3 = load ptr, ptr %2, align 8
  %4 = getelementptr inbounds nuw %"class.std::error_condition", ptr %3, i32 0, i32 0, !dbg !4202
  %5 = load i32, ptr %4, align 8, !dbg !4202
  ret i32 %5, !dbg !4202
}

; Function Attrs: mustprogress noinline optnone uwtable
define linkonce_odr dso_local noundef ptr @"??0system_error@std@@QEAA@Verror_code@1@PEBD@Z"(ptr noundef nonnull returned align 8 dereferenceable(40) %0, ptr noundef %1, ptr noundef %2) unnamed_addr #0 comdat align 2 personality ptr @__CxxFrameHandler3 !dbg !4203 {
  %4 = alloca ptr, align 8
  %5 = alloca ptr, align 8
  %6 = alloca ptr, align 8
  %7 = alloca %"class.std::basic_string", align 8
  %8 = alloca %"class.std::error_code", align 8
  store ptr %2, ptr %4, align 8
    #dbg_declare(ptr %4, !4204, !DIExpression(), !4205)
  store ptr %1, ptr %5, align 8
    #dbg_declare(ptr %5, !4206, !DIExpression(DW_OP_deref), !4205)
  store ptr %0, ptr %6, align 8
    #dbg_declare(ptr %6, !4207, !DIExpression(), !4208)
  %9 = load ptr, ptr %6, align 8
  %10 = load ptr, ptr %4, align 8, !dbg !4205
  %11 = call noundef ptr @"??0?$basic_string@DU?$char_traits@D@std@@V?$allocator@D@2@@std@@QEAA@QEBD@Z"(ptr noundef nonnull align 8 dereferenceable(32) %7, ptr noundef %10), !dbg !4205
  call void @llvm.memcpy.p0.p0.i64(ptr align 8 %8, ptr align 8 %1, i64 16, i1 false), !dbg !4205
  %12 = invoke noundef ptr @"??0_System_error@std@@IEAA@Verror_code@1@AEBV?$basic_string@DU?$char_traits@D@std@@V?$allocator@D@2@@1@@Z"(ptr noundef nonnull align 8 dereferenceable(40) %9, ptr noundef %8, ptr noundef nonnull align 8 dereferenceable(32) %7)
          to label %13 unwind label %14, !dbg !4205

13:                                               ; preds = %3
  call void @"??1?$basic_string@DU?$char_traits@D@std@@V?$allocator@D@2@@std@@QEAA@XZ"(ptr noundef nonnull align 8 dereferenceable(32) %7) #4, !dbg !4205
  store ptr @"??_7system_error@std@@6B@", ptr %9, align 8, !dbg !4205
  ret ptr %9, !dbg !4205

14:                                               ; preds = %3
  %15 = cleanuppad within none [], !dbg !4205
  call void @"??1?$basic_string@DU?$char_traits@D@std@@V?$allocator@D@2@@std@@QEAA@XZ"(ptr noundef nonnull align 8 dereferenceable(32) %7) #4 [ "funclet"(token %15) ], !dbg !4205
  cleanupret from %15 unwind to caller, !dbg !4205
}

; Function Attrs: mustprogress noinline nounwind optnone uwtable
define linkonce_odr dso_local noundef ptr @"??_Gfailure@ios_base@std@@UEAAPEAXI@Z"(ptr noundef nonnull align 8 dereferenceable(40) %0, i32 noundef %1) unnamed_addr #2 comdat align 2 !dbg !4209 {
  %3 = alloca ptr, align 8
  %4 = alloca i32, align 4
  %5 = alloca ptr, align 8
  store i32 %1, ptr %4, align 4
    #dbg_declare(ptr %4, !4212, !DIExpression(), !4213)
  store ptr %0, ptr %5, align 8
    #dbg_declare(ptr %5, !4214, !DIExpression(), !4213)
  %6 = load ptr, ptr %5, align 8
  store ptr %6, ptr %3, align 8
  %7 = load i32, ptr %4, align 4
  call void @"??1failure@ios_base@std@@UEAA@XZ"(ptr noundef nonnull align 8 dereferenceable(40) %6) #4, !dbg !4215
  %8 = icmp eq i32 %7, 0, !dbg !4215
  br i1 %8, label %10, label %9, !dbg !4215

9:                                                ; preds = %2
  call void @"??3@YAXPEAX_K@Z"(ptr noundef %6, i64 noundef 40) #16, !dbg !4215
  br label %10, !dbg !4215

10:                                               ; preds = %9, %2
  %11 = load ptr, ptr %3, align 8, !dbg !4215
  ret ptr %11, !dbg !4215
}

; Function Attrs: mustprogress noinline optnone uwtable
define linkonce_odr dso_local noundef ptr @"??0_System_error@std@@IEAA@Verror_code@1@AEBV?$basic_string@DU?$char_traits@D@std@@V?$allocator@D@2@@1@@Z"(ptr noundef nonnull returned align 8 dereferenceable(40) %0, ptr noundef %1, ptr noundef nonnull align 8 dereferenceable(32) %2) unnamed_addr #0 comdat align 2 personality ptr @__CxxFrameHandler3 !dbg !4216 {
  %4 = alloca ptr, align 8
  %5 = alloca ptr, align 8
  %6 = alloca ptr, align 8
  %7 = alloca %"class.std::basic_string", align 8
  %8 = alloca %"class.std::basic_string", align 8
  %9 = alloca %"class.std::error_code", align 8
  store ptr %2, ptr %4, align 8
    #dbg_declare(ptr %4, !4217, !DIExpression(), !4218)
  store ptr %1, ptr %5, align 8
    #dbg_declare(ptr %5, !4219, !DIExpression(DW_OP_deref), !4218)
  store ptr %0, ptr %6, align 8
    #dbg_declare(ptr %6, !4220, !DIExpression(), !4221)
  %10 = load ptr, ptr %6, align 8
  %11 = load ptr, ptr %4, align 8, !dbg !4222, !nonnull !308, !align !3045
  %12 = call noundef ptr @"??0?$basic_string@DU?$char_traits@D@std@@V?$allocator@D@2@@std@@QEAA@AEBV01@@Z"(ptr noundef nonnull align 8 dereferenceable(32) %8, ptr noundef nonnull align 8 dereferenceable(32) %11), !dbg !4222
  call void @llvm.memcpy.p0.p0.i64(ptr align 8 %9, ptr align 8 %1, i64 16, i1 false), !dbg !4222
  call void @"?_Makestr@_System_error@std@@CA?AV?$basic_string@DU?$char_traits@D@std@@V?$allocator@D@2@@2@Verror_code@2@V32@@Z"(ptr dead_on_unwind writable sret(%"class.std::basic_string") align 8 %7, ptr noundef %9, ptr noundef %8), !dbg !4222
  %13 = invoke noundef ptr @"??0runtime_error@std@@QEAA@AEBV?$basic_string@DU?$char_traits@D@std@@V?$allocator@D@2@@1@@Z"(ptr noundef nonnull align 8 dereferenceable(24) %10, ptr noundef nonnull align 8 dereferenceable(32) %7)
          to label %14 unwind label %16, !dbg !4222

14:                                               ; preds = %3
  call void @"??1?$basic_string@DU?$char_traits@D@std@@V?$allocator@D@2@@std@@QEAA@XZ"(ptr noundef nonnull align 8 dereferenceable(32) %7) #4, !dbg !4222
  store ptr @"??_7_System_error@std@@6B@", ptr %10, align 8, !dbg !4222
  %15 = getelementptr inbounds nuw %"class.std::_System_error", ptr %10, i32 0, i32 1, !dbg !4222
  call void @llvm.memcpy.p0.p0.i64(ptr align 8 %15, ptr align 8 %1, i64 16, i1 false), !dbg !4222
  ret ptr %10, !dbg !4222

16:                                               ; preds = %3
  %17 = cleanuppad within none [], !dbg !4222
  call void @"??1?$basic_string@DU?$char_traits@D@std@@V?$allocator@D@2@@std@@QEAA@XZ"(ptr noundef nonnull align 8 dereferenceable(32) %7) #4 [ "funclet"(token %17) ], !dbg !4222
  cleanupret from %17 unwind to caller, !dbg !4222
}

; Function Attrs: mustprogress noinline nounwind optnone uwtable
define linkonce_odr dso_local void @"??1?$basic_string@DU?$char_traits@D@std@@V?$allocator@D@2@@std@@QEAA@XZ"(ptr noundef nonnull align 8 dereferenceable(32) %0) unnamed_addr #2 comdat align 2 !dbg !4223 {
  %2 = alloca ptr, align 8
  store ptr %0, ptr %2, align 8
    #dbg_declare(ptr %2, !4224, !DIExpression(), !4225)
  %3 = load ptr, ptr %2, align 8
  call void @"?_Tidy_deallocate@?$basic_string@DU?$char_traits@D@std@@V?$allocator@D@2@@std@@AEAAXXZ"(ptr noundef nonnull align 8 dereferenceable(32) %3) #4, !dbg !4226
  %4 = getelementptr inbounds nuw %"class.std::basic_string", ptr %3, i32 0, i32 0, !dbg !4228
  call void @"??1?$_Compressed_pair@V?$allocator@D@std@@V?$_String_val@U?$_Simple_types@D@std@@@2@$00@std@@QEAA@XZ"(ptr noundef nonnull align 8 dereferenceable(32) %4) #4, !dbg !4228
  ret void, !dbg !4229
}

; Function Attrs: mustprogress noinline nounwind optnone uwtable
define linkonce_odr dso_local noundef ptr @"??_Gsystem_error@std@@UEAAPEAXI@Z"(ptr noundef nonnull align 8 dereferenceable(40) %0, i32 noundef %1) unnamed_addr #2 comdat align 2 !dbg !4230 {
  %3 = alloca ptr, align 8
  %4 = alloca i32, align 4
  %5 = alloca ptr, align 8
  store i32 %1, ptr %4, align 4
    #dbg_declare(ptr %4, !4236, !DIExpression(), !4237)
  store ptr %0, ptr %5, align 8
    #dbg_declare(ptr %5, !4238, !DIExpression(), !4237)
  %6 = load ptr, ptr %5, align 8
  store ptr %6, ptr %3, align 8
  %7 = load i32, ptr %4, align 4
  call void @"??1system_error@std@@UEAA@XZ"(ptr noundef nonnull align 8 dereferenceable(40) %6) #4, !dbg !4239
  %8 = icmp eq i32 %7, 0, !dbg !4239
  br i1 %8, label %10, label %9, !dbg !4239

9:                                                ; preds = %2
  call void @"??3@YAXPEAX_K@Z"(ptr noundef %6, i64 noundef 40) #16, !dbg !4239
  br label %10, !dbg !4239

10:                                               ; preds = %9, %2
  %11 = load ptr, ptr %3, align 8, !dbg !4239
  ret ptr %11, !dbg !4239
}

; Function Attrs: mustprogress noinline optnone uwtable
define linkonce_odr dso_local void @"?_Makestr@_System_error@std@@CA?AV?$basic_string@DU?$char_traits@D@std@@V?$allocator@D@2@@2@Verror_code@2@V32@@Z"(ptr dead_on_unwind noalias writable sret(%"class.std::basic_string") align 8 %0, ptr noundef %1, ptr noundef %2) #0 comdat align 2 personality ptr @__CxxFrameHandler3 !dbg !4240 {
  %4 = alloca ptr, align 8
  %5 = alloca ptr, align 8
  %6 = alloca ptr, align 8
  %7 = alloca %"class.std::basic_string", align 8
  store ptr %0, ptr %4, align 8
  store ptr %2, ptr %5, align 8
    #dbg_declare(ptr %5, !4241, !DIExpression(DW_OP_deref), !4242)
  store ptr %1, ptr %6, align 8
    #dbg_declare(ptr %6, !4243, !DIExpression(DW_OP_deref), !4242)
  %8 = call noundef zeroext i1 @"?empty@?$basic_string@DU?$char_traits@D@std@@V?$allocator@D@2@@std@@QEBA_NXZ"(ptr noundef nonnull align 8 dereferenceable(32) %2) #4, !dbg !4244
  br i1 %8, label %12, label %9, !dbg !4244

9:                                                ; preds = %3
  %10 = invoke noundef nonnull align 8 dereferenceable(32) ptr @"?append@?$basic_string@DU?$char_traits@D@std@@V?$allocator@D@2@@std@@QEAAAEAV12@QEBD@Z"(ptr noundef nonnull align 8 dereferenceable(32) %2, ptr noundef @"??_C@_02LMMGGCAJ@?3?5?$AA@")
          to label %11 unwind label %19, !dbg !4245

11:                                               ; preds = %9
  br label %12, !dbg !4248

12:                                               ; preds = %11, %3
  invoke void @"?message@error_code@std@@QEBA?AV?$basic_string@DU?$char_traits@D@std@@V?$allocator@D@2@@2@XZ"(ptr noundef nonnull align 8 dereferenceable(16) %1, ptr dead_on_unwind writable sret(%"class.std::basic_string") align 8 %7)
          to label %13 unwind label %19, !dbg !4249

13:                                               ; preds = %12
  %14 = invoke noundef nonnull align 8 dereferenceable(32) ptr @"?append@?$basic_string@DU?$char_traits@D@std@@V?$allocator@D@2@@std@@QEAAAEAV12@AEBV12@@Z"(ptr noundef nonnull align 8 dereferenceable(32) %2, ptr noundef nonnull align 8 dereferenceable(32) %7)
          to label %15 unwind label %17, !dbg !4249

15:                                               ; preds = %13
  call void @"??1?$basic_string@DU?$char_traits@D@std@@V?$allocator@D@2@@std@@QEAA@XZ"(ptr noundef nonnull align 8 dereferenceable(32) %7) #4, !dbg !4249
  %16 = call noundef ptr @"??0?$basic_string@DU?$char_traits@D@std@@V?$allocator@D@2@@std@@QEAA@$$QEAV01@@Z"(ptr noundef nonnull align 8 dereferenceable(32) %0, ptr noundef nonnull align 8 dereferenceable(32) %2) #4, !dbg !4250
  call void @"??1?$basic_string@DU?$char_traits@D@std@@V?$allocator@D@2@@std@@QEAA@XZ"(ptr noundef nonnull align 8 dereferenceable(32) %2) #4, !dbg !4251
  ret void, !dbg !4251

17:                                               ; preds = %13
  %18 = cleanuppad within none [], !dbg !4249
  call void @"??1?$basic_string@DU?$char_traits@D@std@@V?$allocator@D@2@@std@@QEAA@XZ"(ptr noundef nonnull align 8 dereferenceable(32) %7) #4 [ "funclet"(token %18) ], !dbg !4249
  cleanupret from %18 unwind label %19, !dbg !4249

19:                                               ; preds = %17, %12, %9
  %20 = cleanuppad within none [], !dbg !4251
  call void @"??1?$basic_string@DU?$char_traits@D@std@@V?$allocator@D@2@@std@@QEAA@XZ"(ptr noundef nonnull align 8 dereferenceable(32) %2) #4 [ "funclet"(token %20) ], !dbg !4251
  cleanupret from %20 unwind to caller, !dbg !4251
}

; Function Attrs: mustprogress noinline optnone uwtable
define linkonce_odr dso_local noundef ptr @"??0?$basic_string@DU?$char_traits@D@std@@V?$allocator@D@2@@std@@QEAA@AEBV01@@Z"(ptr noundef nonnull returned align 8 dereferenceable(32) %0, ptr noundef nonnull align 8 dereferenceable(32) %1) unnamed_addr #0 comdat align 2 personality ptr @__CxxFrameHandler3 !dbg !4252 {
  %3 = alloca ptr, align 8
  %4 = alloca ptr, align 8
  %5 = alloca %"class.std::allocator", align 1
  %6 = alloca %"struct.std::_One_then_variadic_args_t", align 1
  store ptr %1, ptr %3, align 8
    #dbg_declare(ptr %3, !4253, !DIExpression(), !4254)
  store ptr %0, ptr %4, align 8
    #dbg_declare(ptr %4, !4255, !DIExpression(), !4256)
  %7 = load ptr, ptr %4, align 8
  %8 = getelementptr inbounds nuw %"class.std::basic_string", ptr %7, i32 0, i32 0, !dbg !4257
  %9 = load ptr, ptr %3, align 8, !dbg !4257, !nonnull !308, !align !3045
  %10 = call noundef nonnull align 1 dereferenceable(1) ptr @"?_Getal@?$basic_string@DU?$char_traits@D@std@@V?$allocator@D@2@@std@@AEBAAEBV?$allocator@D@2@XZ"(ptr noundef nonnull align 8 dereferenceable(32) %9) #4, !dbg !4257
  call void @"?select_on_container_copy_construction@?$_Default_allocator_traits@V?$allocator@D@std@@@std@@SA?AV?$allocator@D@2@AEBV32@@Z"(ptr dead_on_unwind writable sret(%"class.std::allocator") align 1 %5, ptr noundef nonnull align 1 dereferenceable(1) %10), !dbg !4257
  %11 = getelementptr inbounds nuw %"struct.std::_One_then_variadic_args_t", ptr %6, i32 0, i32 0, !dbg !4257
  %12 = load i8, ptr %11, align 1, !dbg !4257
  %13 = call noundef ptr @"??$?0V?$allocator@D@std@@$$V@?$_Compressed_pair@V?$allocator@D@std@@V?$_String_val@U?$_Simple_types@D@std@@@2@$00@std@@QEAA@U_One_then_variadic_args_t@1@$$QEAV?$allocator@D@1@@Z"(ptr noundef nonnull align 8 dereferenceable(32) %8, i8 %12, ptr noundef nonnull align 1 dereferenceable(1) %5) #4, !dbg !4257
  %14 = load ptr, ptr %3, align 8, !dbg !4258, !nonnull !308, !align !3045
  %15 = getelementptr inbounds nuw %"class.std::basic_string", ptr %14, i32 0, i32 0, !dbg !4258
  %16 = getelementptr inbounds nuw %"class.std::_Compressed_pair", ptr %15, i32 0, i32 0, !dbg !4258
  %17 = getelementptr inbounds nuw %"class.std::_String_val", ptr %16, i32 0, i32 1, !dbg !4258
  %18 = load i64, ptr %17, align 8, !dbg !4258
  %19 = load ptr, ptr %3, align 8, !dbg !4258, !nonnull !308, !align !3045
  %20 = getelementptr inbounds nuw %"class.std::basic_string", ptr %19, i32 0, i32 0, !dbg !4258
  %21 = getelementptr inbounds nuw %"class.std::_Compressed_pair", ptr %20, i32 0, i32 0, !dbg !4258
  %22 = call noundef ptr @"?_Myptr@?$_String_val@U?$_Simple_types@D@std@@@std@@QEBAPEBDXZ"(ptr noundef nonnull align 8 dereferenceable(32) %21) #4, !dbg !4258
  invoke void @"??$_Construct@$01PEBD@?$basic_string@DU?$char_traits@D@std@@V?$allocator@D@2@@std@@AEAAXQEBD_K@Z"(ptr noundef nonnull align 8 dereferenceable(32) %7, ptr noundef %22, i64 noundef %18)
          to label %23 unwind label %24, !dbg !4258

23:                                               ; preds = %2
  ret ptr %7, !dbg !4260

24:                                               ; preds = %2
  %25 = cleanuppad within none [], !dbg !4261
  call void @"??1?$_Compressed_pair@V?$allocator@D@std@@V?$_String_val@U?$_Simple_types@D@std@@@2@$00@std@@QEAA@XZ"(ptr noundef nonnull align 8 dereferenceable(32) %8) #4 [ "funclet"(token %25) ], !dbg !4261
  cleanupret from %25 unwind to caller, !dbg !4261
}

; Function Attrs: mustprogress noinline nounwind optnone uwtable
define linkonce_odr dso_local noundef ptr @"??0runtime_error@std@@QEAA@AEBV?$basic_string@DU?$char_traits@D@std@@V?$allocator@D@2@@1@@Z"(ptr noundef nonnull returned align 8 dereferenceable(24) %0, ptr noundef nonnull align 8 dereferenceable(32) %1) unnamed_addr #2 comdat align 2 !dbg !4262 {
  %3 = alloca ptr, align 8
  %4 = alloca ptr, align 8
  store ptr %1, ptr %3, align 8
    #dbg_declare(ptr %3, !4263, !DIExpression(), !4264)
  store ptr %0, ptr %4, align 8
    #dbg_declare(ptr %4, !4265, !DIExpression(), !4266)
  %5 = load ptr, ptr %4, align 8
  %6 = load ptr, ptr %3, align 8, !dbg !4264, !nonnull !308, !align !3045
  %7 = call noundef ptr @"?c_str@?$basic_string@DU?$char_traits@D@std@@V?$allocator@D@2@@std@@QEBAPEBDXZ"(ptr noundef nonnull align 8 dereferenceable(32) %6) #4, !dbg !4264
  %8 = call noundef ptr @"??0exception@std@@QEAA@QEBD@Z"(ptr noundef nonnull align 8 dereferenceable(24) %5, ptr noundef %7) #4, !dbg !4264
  store ptr @"??_7runtime_error@std@@6B@", ptr %5, align 8, !dbg !4264
  ret ptr %5, !dbg !4264
}

; Function Attrs: mustprogress noinline nounwind optnone uwtable
define linkonce_odr dso_local noundef ptr @"??_G_System_error@std@@UEAAPEAXI@Z"(ptr noundef nonnull align 8 dereferenceable(40) %0, i32 noundef %1) unnamed_addr #2 comdat align 2 !dbg !4267 {
  %3 = alloca ptr, align 8
  %4 = alloca i32, align 4
  %5 = alloca ptr, align 8
  store i32 %1, ptr %4, align 4
    #dbg_declare(ptr %4, !4273, !DIExpression(), !4274)
  store ptr %0, ptr %5, align 8
    #dbg_declare(ptr %5, !4275, !DIExpression(), !4274)
  %6 = load ptr, ptr %5, align 8
  store ptr %6, ptr %3, align 8
  %7 = load i32, ptr %4, align 4
  call void @"??1_System_error@std@@UEAA@XZ"(ptr noundef nonnull align 8 dereferenceable(40) %6) #4, !dbg !4276
  %8 = icmp eq i32 %7, 0, !dbg !4276
  br i1 %8, label %10, label %9, !dbg !4276

9:                                                ; preds = %2
  call void @"??3@YAXPEAX_K@Z"(ptr noundef %6, i64 noundef 40) #16, !dbg !4276
  br label %10, !dbg !4276

10:                                               ; preds = %9, %2
  %11 = load ptr, ptr %3, align 8, !dbg !4276
  ret ptr %11, !dbg !4276
}

; Function Attrs: mustprogress noinline nounwind optnone uwtable
define linkonce_odr dso_local noundef zeroext i1 @"?empty@?$basic_string@DU?$char_traits@D@std@@V?$allocator@D@2@@std@@QEBA_NXZ"(ptr noundef nonnull align 8 dereferenceable(32) %0) #2 comdat align 2 !dbg !4277 {
  %2 = alloca ptr, align 8
  store ptr %0, ptr %2, align 8
    #dbg_declare(ptr %2, !4278, !DIExpression(), !4279)
  %3 = load ptr, ptr %2, align 8
  %4 = getelementptr inbounds nuw %"class.std::basic_string", ptr %3, i32 0, i32 0, !dbg !4280
  %5 = getelementptr inbounds nuw %"class.std::_Compressed_pair", ptr %4, i32 0, i32 0, !dbg !4280
  %6 = getelementptr inbounds nuw %"class.std::_String_val", ptr %5, i32 0, i32 1, !dbg !4280
  %7 = load i64, ptr %6, align 8, !dbg !4280
  %8 = icmp eq i64 %7, 0, !dbg !4280
  ret i1 %8, !dbg !4280
}

; Function Attrs: mustprogress noinline optnone uwtable
define linkonce_odr dso_local noundef nonnull align 8 dereferenceable(32) ptr @"?append@?$basic_string@DU?$char_traits@D@std@@V?$allocator@D@2@@std@@QEAAAEAV12@QEBD@Z"(ptr noundef nonnull align 8 dereferenceable(32) %0, ptr noundef %1) #0 comdat align 2 !dbg !4281 {
  %3 = alloca ptr, align 8
  %4 = alloca ptr, align 8
  store ptr %1, ptr %3, align 8
    #dbg_declare(ptr %3, !4282, !DIExpression(), !4283)
  store ptr %0, ptr %4, align 8
    #dbg_declare(ptr %4, !4284, !DIExpression(), !4285)
  %5 = load ptr, ptr %4, align 8
  %6 = load ptr, ptr %3, align 8, !dbg !4286
  %7 = call noundef i64 @"?length@?$_Narrow_char_traits@DH@std@@SA_KQEBD@Z"(ptr noundef %6) #4, !dbg !4286
  %8 = call noundef i64 @"??$_Convert_size@_K_K@std@@YA_K_K@Z"(i64 noundef %7) #4, !dbg !4286
  %9 = load ptr, ptr %3, align 8, !dbg !4286
  %10 = call noundef nonnull align 8 dereferenceable(32) ptr @"?append@?$basic_string@DU?$char_traits@D@std@@V?$allocator@D@2@@std@@QEAAAEAV12@QEBD_K@Z"(ptr noundef nonnull align 8 dereferenceable(32) %5, ptr noundef %9, i64 noundef %8), !dbg !4286
  ret ptr %10, !dbg !4286
}

; Function Attrs: mustprogress noinline optnone uwtable
define linkonce_odr dso_local noundef nonnull align 8 dereferenceable(32) ptr @"?append@?$basic_string@DU?$char_traits@D@std@@V?$allocator@D@2@@std@@QEAAAEAV12@AEBV12@@Z"(ptr noundef nonnull align 8 dereferenceable(32) %0, ptr noundef nonnull align 8 dereferenceable(32) %1) #0 comdat align 2 !dbg !4287 {
  %3 = alloca ptr, align 8
  %4 = alloca ptr, align 8
  store ptr %1, ptr %3, align 8
    #dbg_declare(ptr %3, !4288, !DIExpression(), !4289)
  store ptr %0, ptr %4, align 8
    #dbg_declare(ptr %4, !4290, !DIExpression(), !4291)
  %5 = load ptr, ptr %4, align 8
  %6 = load ptr, ptr %3, align 8, !dbg !4292, !nonnull !308, !align !3045
  %7 = getelementptr inbounds nuw %"class.std::basic_string", ptr %6, i32 0, i32 0, !dbg !4292
  %8 = getelementptr inbounds nuw %"class.std::_Compressed_pair", ptr %7, i32 0, i32 0, !dbg !4292
  %9 = getelementptr inbounds nuw %"class.std::_String_val", ptr %8, i32 0, i32 1, !dbg !4292
  %10 = load i64, ptr %9, align 8, !dbg !4292
  %11 = load ptr, ptr %3, align 8, !dbg !4292, !nonnull !308, !align !3045
  %12 = getelementptr inbounds nuw %"class.std::basic_string", ptr %11, i32 0, i32 0, !dbg !4292
  %13 = getelementptr inbounds nuw %"class.std::_Compressed_pair", ptr %12, i32 0, i32 0, !dbg !4292
  %14 = call noundef ptr @"?_Myptr@?$_String_val@U?$_Simple_types@D@std@@@std@@QEBAPEBDXZ"(ptr noundef nonnull align 8 dereferenceable(32) %13) #4, !dbg !4292
  %15 = call noundef nonnull align 8 dereferenceable(32) ptr @"?append@?$basic_string@DU?$char_traits@D@std@@V?$allocator@D@2@@std@@QEAAAEAV12@QEBD_K@Z"(ptr noundef nonnull align 8 dereferenceable(32) %5, ptr noundef %14, i64 noundef %10), !dbg !4292
  ret ptr %15, !dbg !4292
}

; Function Attrs: mustprogress noinline optnone uwtable
define linkonce_odr dso_local void @"?message@error_code@std@@QEBA?AV?$basic_string@DU?$char_traits@D@std@@V?$allocator@D@2@@2@XZ"(ptr noundef nonnull align 8 dereferenceable(16) %0, ptr dead_on_unwind noalias writable sret(%"class.std::basic_string") align 8 %1) #0 comdat align 2 !dbg !4293 {
  %3 = alloca ptr, align 8
  %4 = alloca ptr, align 8
  store ptr %1, ptr %3, align 8
  store ptr %0, ptr %4, align 8
    #dbg_declare(ptr %4, !4294, !DIExpression(), !4295)
  %5 = load ptr, ptr %4, align 8
