; ModuleID = 'test.cpp'
source_filename = "test.cpp"
target datalayout = "e-m:e-p270:32:32-p271:32:32-p272:64:64-i64:64-f80:128-n8:16:32:64-S128"
target triple = "x86_64-pc-linux-gnu"

module asm ".globl _ZSt21ios_base_library_initv"

%"class.std::basic_ostream" = type { i32 (...)**, %"class.std::basic_ios" }
%"class.std::basic_ios" = type { %"class.std::ios_base", %"class.std::basic_ostream"*, i8, i8, %"class.std::basic_streambuf"*, %"class.std::ctype"*, %"class.std::num_put"*, %"class.std::num_get"* }
%"class.std::ios_base" = type { i32 (...)**, i64, i64, i32, i32, i32, %"struct.std::ios_base::_Callback_list"*, %"struct.std::ios_base::_Words", [8 x %"struct.std::ios_base::_Words"], i32, %"struct.std::ios_base::_Words"*, %"class.std::locale" }
%"struct.std::ios_base::_Callback_list" = type { %"struct.std::ios_base::_Callback_list"*, void (i32, %"class.std::ios_base"*, i32)*, i32, i32 }
%"struct.std::ios_base::_Words" = type { i8*, i64 }
%"class.std::locale" = type { %"class.std::locale::_Impl"* }
%"class.std::locale::_Impl" = type { i32, %"class.std::locale::facet"**, i64, %"class.std::locale::facet"**, i8** }
%"class.std::locale::facet" = type <{ i32 (...)**, i32, [4 x i8] }>
%"class.std::basic_streambuf" = type { i32 (...)**, i8*, i8*, i8*, i8*, i8*, i8*, %"class.std::locale" }
%"class.std::ctype" = type <{ %"class.std::locale::facet.base", [4 x i8], %struct.__locale_struct*, i8, [7 x i8], i32*, i32*, i16*, i8, [256 x i8], [256 x i8], i8, [6 x i8] }>
%"class.std::locale::facet.base" = type <{ i32 (...)**, i32 }>
%struct.__locale_struct = type { [13 x %struct.__locale_data*], i16*, i32*, i32*, [13 x i8*] }
%struct.__locale_data = type opaque
%"class.std::num_put" = type { %"class.std::locale::facet.base", [4 x i8] }
%"class.std::num_get" = type { %"class.std::locale::facet.base", [4 x i8] }

@_ZSt4cout = external global %"class.std::basic_ostream", align 8
@.str = private unnamed_addr constant [18 x i8] c"THIS FUNCTION M. \00", align 1
@.str.1 = private unnamed_addr constant [2 x i8] c"M\00", align 1
@.str.2 = private unnamed_addr constant [18 x i8] c"THIS FUNCTION N. \00", align 1
@.str.3 = private unnamed_addr constant [2 x i8] c"N\00", align 1
@.str.4 = private unnamed_addr constant [18 x i8] c"THIS FUNCTION D. \00", align 1
@.str.5 = private unnamed_addr constant [2 x i8] c"D\00", align 1
@.str.6 = private unnamed_addr constant [18 x i8] c"THIS FUNCTION E. \00", align 1
@.str.7 = private unnamed_addr constant [2 x i8] c"E\00", align 1
@.str.8 = private unnamed_addr constant [18 x i8] c"THIS FUNCTION B. \00", align 1
@.str.9 = private unnamed_addr constant [2 x i8] c"B\00", align 1
@.str.10 = private unnamed_addr constant [18 x i8] c"THIS FUNCTION C. \00", align 1
@.str.11 = private unnamed_addr constant [2 x i8] c"C\00", align 1
@.str.12 = private unnamed_addr constant [18 x i8] c"THIS FUNCTION A. \00", align 1
@.str.13 = private unnamed_addr constant [2 x i8] c"A\00", align 1
@.str.14 = private unnamed_addr constant [18 x i8] c"THIS FUNCTION F. \00", align 1
@.str.15 = private unnamed_addr constant [2 x i8] c"F\00", align 1
@.str.16 = private unnamed_addr constant [18 x i8] c"THIS FUNCTION G. \00", align 1
@.str.17 = private unnamed_addr constant [2 x i8] c"G\00", align 1
@.str.18 = private unnamed_addr constant [18 x i8] c"THIS FUNCTION H. \00", align 1
@.str.19 = private unnamed_addr constant [2 x i8] c"H\00", align 1
@.str.20 = private unnamed_addr constant [18 x i8] c"THIS FUNCTION K. \00", align 1
@.str.21 = private unnamed_addr constant [2 x i8] c"K\00", align 1
@.str.22 = private unnamed_addr constant [18 x i8] c"THIS FUNCTION Q. \00", align 1
@.str.23 = private unnamed_addr constant [2 x i8] c"Q\00", align 1
@.str.24 = private unnamed_addr constant [18 x i8] c"THIS FUNCTION T. \00", align 1
@.str.25 = private unnamed_addr constant [2 x i8] c"T\00", align 1

; Function Attrs: mustprogress noinline optnone uwtable
define dso_local void @_Z1Mv() #0 !dbg !775 {
  %1 = call noundef nonnull align 8 dereferenceable(8) %"class.std::basic_ostream"* @_ZStlsISt11char_traitsIcEERSt13basic_ostreamIcT_ES5_PKc(%"class.std::basic_ostream"* noundef nonnull align 8 dereferenceable(8) @_ZSt4cout, i8* noundef getelementptr inbounds ([18 x i8], [18 x i8]* @.str, i64 0, i64 0)), !dbg !777
  %2 = call noundef nonnull align 8 dereferenceable(8) %"class.std::basic_ostream"* @_ZNSolsEPFRSoS_E(%"class.std::basic_ostream"* noundef nonnull align 8 dereferenceable(8) %1, %"class.std::basic_ostream"* (%"class.std::basic_ostream"*)* noundef @_ZSt4endlIcSt11char_traitsIcEERSt13basic_ostreamIT_T0_ES6_), !dbg !778
  %3 = call noundef nonnull align 8 dereferenceable(8) %"class.std::basic_ostream"* @_ZStlsISt11char_traitsIcEERSt13basic_ostreamIcT_ES5_PKc(%"class.std::basic_ostream"* noundef nonnull align 8 dereferenceable(8) @_ZSt4cout, i8* noundef getelementptr inbounds ([2 x i8], [2 x i8]* @.str.1, i64 0, i64 0)), !dbg !779
  %4 = call noundef nonnull align 8 dereferenceable(8) %"class.std::basic_ostream"* @_ZNSolsEPFRSoS_E(%"class.std::basic_ostream"* noundef nonnull align 8 dereferenceable(8) %3, %"class.std::basic_ostream"* (%"class.std::basic_ostream"*)* noundef @_ZSt4endlIcSt11char_traitsIcEERSt13basic_ostreamIT_T0_ES6_), !dbg !780
  ret void, !dbg !781
}

declare noundef nonnull align 8 dereferenceable(8) %"class.std::basic_ostream"* @_ZStlsISt11char_traitsIcEERSt13basic_ostreamIcT_ES5_PKc(%"class.std::basic_ostream"* noundef nonnull align 8 dereferenceable(8), i8* noundef) #1

declare noundef nonnull align 8 dereferenceable(8) %"class.std::basic_ostream"* @_ZNSolsEPFRSoS_E(%"class.std::basic_ostream"* noundef nonnull align 8 dereferenceable(8), %"class.std::basic_ostream"* (%"class.std::basic_ostream"*)* noundef) #1

declare noundef nonnull align 8 dereferenceable(8) %"class.std::basic_ostream"* @_ZSt4endlIcSt11char_traitsIcEERSt13basic_ostreamIT_T0_ES6_(%"class.std::basic_ostream"* noundef nonnull align 8 dereferenceable(8)) #1

; Function Attrs: mustprogress noinline optnone uwtable
define dso_local void @_Z1Nv() #0 !dbg !782 {
  %1 = call noundef nonnull align 8 dereferenceable(8) %"class.std::basic_ostream"* @_ZStlsISt11char_traitsIcEERSt13basic_ostreamIcT_ES5_PKc(%"class.std::basic_ostream"* noundef nonnull align 8 dereferenceable(8) @_ZSt4cout, i8* noundef getelementptr inbounds ([18 x i8], [18 x i8]* @.str.2, i64 0, i64 0)), !dbg !783
  %2 = call noundef nonnull align 8 dereferenceable(8) %"class.std::basic_ostream"* @_ZNSolsEPFRSoS_E(%"class.std::basic_ostream"* noundef nonnull align 8 dereferenceable(8) %1, %"class.std::basic_ostream"* (%"class.std::basic_ostream"*)* noundef @_ZSt4endlIcSt11char_traitsIcEERSt13basic_ostreamIT_T0_ES6_), !dbg !784
  %3 = call noundef nonnull align 8 dereferenceable(8) %"class.std::basic_ostream"* @_ZStlsISt11char_traitsIcEERSt13basic_ostreamIcT_ES5_PKc(%"class.std::basic_ostream"* noundef nonnull align 8 dereferenceable(8) @_ZSt4cout, i8* noundef getelementptr inbounds ([2 x i8], [2 x i8]* @.str.3, i64 0, i64 0)), !dbg !785
  %4 = call noundef nonnull align 8 dereferenceable(8) %"class.std::basic_ostream"* @_ZNSolsEPFRSoS_E(%"class.std::basic_ostream"* noundef nonnull align 8 dereferenceable(8) %3, %"class.std::basic_ostream"* (%"class.std::basic_ostream"*)* noundef @_ZSt4endlIcSt11char_traitsIcEERSt13basic_ostreamIT_T0_ES6_), !dbg !786
  ret void, !dbg !787
}

; Function Attrs: mustprogress noinline optnone uwtable
define dso_local void @_Z1Dv() #0 !dbg !788 {
  %1 = call noundef nonnull align 8 dereferenceable(8) %"class.std::basic_ostream"* @_ZStlsISt11char_traitsIcEERSt13basic_ostreamIcT_ES5_PKc(%"class.std::basic_ostream"* noundef nonnull align 8 dereferenceable(8) @_ZSt4cout, i8* noundef getelementptr inbounds ([18 x i8], [18 x i8]* @.str.4, i64 0, i64 0)), !dbg !789
  %2 = call noundef nonnull align 8 dereferenceable(8) %"class.std::basic_ostream"* @_ZNSolsEPFRSoS_E(%"class.std::basic_ostream"* noundef nonnull align 8 dereferenceable(8) %1, %"class.std::basic_ostream"* (%"class.std::basic_ostream"*)* noundef @_ZSt4endlIcSt11char_traitsIcEERSt13basic_ostreamIT_T0_ES6_), !dbg !790
  %3 = call noundef nonnull align 8 dereferenceable(8) %"class.std::basic_ostream"* @_ZStlsISt11char_traitsIcEERSt13basic_ostreamIcT_ES5_PKc(%"class.std::basic_ostream"* noundef nonnull align 8 dereferenceable(8) @_ZSt4cout, i8* noundef getelementptr inbounds ([2 x i8], [2 x i8]* @.str.5, i64 0, i64 0)), !dbg !791
  %4 = call noundef nonnull align 8 dereferenceable(8) %"class.std::basic_ostream"* @_ZNSolsEPFRSoS_E(%"class.std::basic_ostream"* noundef nonnull align 8 dereferenceable(8) %3, %"class.std::basic_ostream"* (%"class.std::basic_ostream"*)* noundef @_ZSt4endlIcSt11char_traitsIcEERSt13basic_ostreamIT_T0_ES6_), !dbg !792
  call void @_Z1Mv(), !dbg !793
  ret void, !dbg !794
}

; Function Attrs: mustprogress noinline optnone uwtable
define dso_local void @_Z1Ev() #0 !dbg !795 {
  %1 = call noundef nonnull align 8 dereferenceable(8) %"class.std::basic_ostream"* @_ZStlsISt11char_traitsIcEERSt13basic_ostreamIcT_ES5_PKc(%"class.std::basic_ostream"* noundef nonnull align 8 dereferenceable(8) @_ZSt4cout, i8* noundef getelementptr inbounds ([18 x i8], [18 x i8]* @.str.6, i64 0, i64 0)), !dbg !796
  %2 = call noundef nonnull align 8 dereferenceable(8) %"class.std::basic_ostream"* @_ZNSolsEPFRSoS_E(%"class.std::basic_ostream"* noundef nonnull align 8 dereferenceable(8) %1, %"class.std::basic_ostream"* (%"class.std::basic_ostream"*)* noundef @_ZSt4endlIcSt11char_traitsIcEERSt13basic_ostreamIT_T0_ES6_), !dbg !797
  %3 = call noundef nonnull align 8 dereferenceable(8) %"class.std::basic_ostream"* @_ZStlsISt11char_traitsIcEERSt13basic_ostreamIcT_ES5_PKc(%"class.std::basic_ostream"* noundef nonnull align 8 dereferenceable(8) @_ZSt4cout, i8* noundef getelementptr inbounds ([2 x i8], [2 x i8]* @.str.7, i64 0, i64 0)), !dbg !798
  %4 = call noundef nonnull align 8 dereferenceable(8) %"class.std::basic_ostream"* @_ZNSolsEPFRSoS_E(%"class.std::basic_ostream"* noundef nonnull align 8 dereferenceable(8) %3, %"class.std::basic_ostream"* (%"class.std::basic_ostream"*)* noundef @_ZSt4endlIcSt11char_traitsIcEERSt13basic_ostreamIT_T0_ES6_), !dbg !799
  call void @_Z1Nv(), !dbg !800
  ret void, !dbg !801
}

; Function Attrs: mustprogress noinline optnone uwtable
define dso_local void @_Z1Bv() #0 !dbg !802 {
  %1 = call noundef nonnull align 8 dereferenceable(8) %"class.std::basic_ostream"* @_ZStlsISt11char_traitsIcEERSt13basic_ostreamIcT_ES5_PKc(%"class.std::basic_ostream"* noundef nonnull align 8 dereferenceable(8) @_ZSt4cout, i8* noundef getelementptr inbounds ([18 x i8], [18 x i8]* @.str.8, i64 0, i64 0)), !dbg !803
  %2 = call noundef nonnull align 8 dereferenceable(8) %"class.std::basic_ostream"* @_ZNSolsEPFRSoS_E(%"class.std::basic_ostream"* noundef nonnull align 8 dereferenceable(8) %1, %"class.std::basic_ostream"* (%"class.std::basic_ostream"*)* noundef @_ZSt4endlIcSt11char_traitsIcEERSt13basic_ostreamIT_T0_ES6_), !dbg !804
  %3 = call noundef nonnull align 8 dereferenceable(8) %"class.std::basic_ostream"* @_ZStlsISt11char_traitsIcEERSt13basic_ostreamIcT_ES5_PKc(%"class.std::basic_ostream"* noundef nonnull align 8 dereferenceable(8) @_ZSt4cout, i8* noundef getelementptr inbounds ([2 x i8], [2 x i8]* @.str.9, i64 0, i64 0)), !dbg !805
  %4 = call noundef nonnull align 8 dereferenceable(8) %"class.std::basic_ostream"* @_ZNSolsEPFRSoS_E(%"class.std::basic_ostream"* noundef nonnull align 8 dereferenceable(8) %3, %"class.std::basic_ostream"* (%"class.std::basic_ostream"*)* noundef @_ZSt4endlIcSt11char_traitsIcEERSt13basic_ostreamIT_T0_ES6_), !dbg !806
  call void @_Z1Dv(), !dbg !807
  ret void, !dbg !808
}

; Function Attrs: mustprogress noinline optnone uwtable
define dso_local void @_Z1Cv() #0 !dbg !809 {
  %1 = call noundef nonnull align 8 dereferenceable(8) %"class.std::basic_ostream"* @_ZStlsISt11char_traitsIcEERSt13basic_ostreamIcT_ES5_PKc(%"class.std::basic_ostream"* noundef nonnull align 8 dereferenceable(8) @_ZSt4cout, i8* noundef getelementptr inbounds ([18 x i8], [18 x i8]* @.str.10, i64 0, i64 0)), !dbg !810
  %2 = call noundef nonnull align 8 dereferenceable(8) %"class.std::basic_ostream"* @_ZNSolsEPFRSoS_E(%"class.std::basic_ostream"* noundef nonnull align 8 dereferenceable(8) %1, %"class.std::basic_ostream"* (%"class.std::basic_ostream"*)* noundef @_ZSt4endlIcSt11char_traitsIcEERSt13basic_ostreamIT_T0_ES6_), !dbg !811
  %3 = call noundef nonnull align 8 dereferenceable(8) %"class.std::basic_ostream"* @_ZStlsISt11char_traitsIcEERSt13basic_ostreamIcT_ES5_PKc(%"class.std::basic_ostream"* noundef nonnull align 8 dereferenceable(8) @_ZSt4cout, i8* noundef getelementptr inbounds ([2 x i8], [2 x i8]* @.str.11, i64 0, i64 0)), !dbg !812
  %4 = call noundef nonnull align 8 dereferenceable(8) %"class.std::basic_ostream"* @_ZNSolsEPFRSoS_E(%"class.std::basic_ostream"* noundef nonnull align 8 dereferenceable(8) %3, %"class.std::basic_ostream"* (%"class.std::basic_ostream"*)* noundef @_ZSt4endlIcSt11char_traitsIcEERSt13basic_ostreamIT_T0_ES6_), !dbg !813
  call void @_Z1Ev(), !dbg !814
  ret void, !dbg !815
}

; Function Attrs: mustprogress noinline optnone uwtable
define dso_local void @_Z1Av() #0 !dbg !816 {
  %1 = call noundef nonnull align 8 dereferenceable(8) %"class.std::basic_ostream"* @_ZStlsISt11char_traitsIcEERSt13basic_ostreamIcT_ES5_PKc(%"class.std::basic_ostream"* noundef nonnull align 8 dereferenceable(8) @_ZSt4cout, i8* noundef getelementptr inbounds ([18 x i8], [18 x i8]* @.str.12, i64 0, i64 0)), !dbg !817
  %2 = call noundef nonnull align 8 dereferenceable(8) %"class.std::basic_ostream"* @_ZNSolsEPFRSoS_E(%"class.std::basic_ostream"* noundef nonnull align 8 dereferenceable(8) %1, %"class.std::basic_ostream"* (%"class.std::basic_ostream"*)* noundef @_ZSt4endlIcSt11char_traitsIcEERSt13basic_ostreamIT_T0_ES6_), !dbg !818
  %3 = call noundef nonnull align 8 dereferenceable(8) %"class.std::basic_ostream"* @_ZStlsISt11char_traitsIcEERSt13basic_ostreamIcT_ES5_PKc(%"class.std::basic_ostream"* noundef nonnull align 8 dereferenceable(8) @_ZSt4cout, i8* noundef getelementptr inbounds ([2 x i8], [2 x i8]* @.str.13, i64 0, i64 0)), !dbg !819
  %4 = call noundef nonnull align 8 dereferenceable(8) %"class.std::basic_ostream"* @_ZNSolsEPFRSoS_E(%"class.std::basic_ostream"* noundef nonnull align 8 dereferenceable(8) %3, %"class.std::basic_ostream"* (%"class.std::basic_ostream"*)* noundef @_ZSt4endlIcSt11char_traitsIcEERSt13basic_ostreamIT_T0_ES6_), !dbg !820
  call void @_Z1Bv(), !dbg !821
  call void @_Z1Cv(), !dbg !822
  ret void, !dbg !823
}

; Function Attrs: mustprogress noinline optnone uwtable
define dso_local void @_Z1Fv() #0 !dbg !824 {
  %1 = call noundef nonnull align 8 dereferenceable(8) %"class.std::basic_ostream"* @_ZStlsISt11char_traitsIcEERSt13basic_ostreamIcT_ES5_PKc(%"class.std::basic_ostream"* noundef nonnull align 8 dereferenceable(8) @_ZSt4cout, i8* noundef getelementptr inbounds ([18 x i8], [18 x i8]* @.str.14, i64 0, i64 0)), !dbg !825
  %2 = call noundef nonnull align 8 dereferenceable(8) %"class.std::basic_ostream"* @_ZNSolsEPFRSoS_E(%"class.std::basic_ostream"* noundef nonnull align 8 dereferenceable(8) %1, %"class.std::basic_ostream"* (%"class.std::basic_ostream"*)* noundef @_ZSt4endlIcSt11char_traitsIcEERSt13basic_ostreamIT_T0_ES6_), !dbg !826
  %3 = call noundef nonnull align 8 dereferenceable(8) %"class.std::basic_ostream"* @_ZStlsISt11char_traitsIcEERSt13basic_ostreamIcT_ES5_PKc(%"class.std::basic_ostream"* noundef nonnull align 8 dereferenceable(8) @_ZSt4cout, i8* noundef getelementptr inbounds ([2 x i8], [2 x i8]* @.str.15, i64 0, i64 0)), !dbg !827
  %4 = call noundef nonnull align 8 dereferenceable(8) %"class.std::basic_ostream"* @_ZNSolsEPFRSoS_E(%"class.std::basic_ostream"* noundef nonnull align 8 dereferenceable(8) %3, %"class.std::basic_ostream"* (%"class.std::basic_ostream"*)* noundef @_ZSt4endlIcSt11char_traitsIcEERSt13basic_ostreamIT_T0_ES6_), !dbg !828
  call void @_Z1Av(), !dbg !829
  ret void, !dbg !830
}

; Function Attrs: mustprogress noinline optnone uwtable
define dso_local void @_Z1Gv() #0 !dbg !831 {
  %1 = call noundef nonnull align 8 dereferenceable(8) %"class.std::basic_ostream"* @_ZStlsISt11char_traitsIcEERSt13basic_ostreamIcT_ES5_PKc(%"class.std::basic_ostream"* noundef nonnull align 8 dereferenceable(8) @_ZSt4cout, i8* noundef getelementptr inbounds ([18 x i8], [18 x i8]* @.str.16, i64 0, i64 0)), !dbg !832
  %2 = call noundef nonnull align 8 dereferenceable(8) %"class.std::basic_ostream"* @_ZNSolsEPFRSoS_E(%"class.std::basic_ostream"* noundef nonnull align 8 dereferenceable(8) %1, %"class.std::basic_ostream"* (%"class.std::basic_ostream"*)* noundef @_ZSt4endlIcSt11char_traitsIcEERSt13basic_ostreamIT_T0_ES6_), !dbg !833
  %3 = call noundef nonnull align 8 dereferenceable(8) %"class.std::basic_ostream"* @_ZStlsISt11char_traitsIcEERSt13basic_ostreamIcT_ES5_PKc(%"class.std::basic_ostream"* noundef nonnull align 8 dereferenceable(8) @_ZSt4cout, i8* noundef getelementptr inbounds ([2 x i8], [2 x i8]* @.str.17, i64 0, i64 0)), !dbg !834
  %4 = call noundef nonnull align 8 dereferenceable(8) %"class.std::basic_ostream"* @_ZNSolsEPFRSoS_E(%"class.std::basic_ostream"* noundef nonnull align 8 dereferenceable(8) %3, %"class.std::basic_ostream"* (%"class.std::basic_ostream"*)* noundef @_ZSt4endlIcSt11char_traitsIcEERSt13basic_ostreamIT_T0_ES6_), !dbg !835
  call void @_Z1Av(), !dbg !836
  ret void, !dbg !837
}

; Function Attrs: mustprogress noinline optnone uwtable
define dso_local void @_Z1Hv() #0 !dbg !838 {
  %1 = call noundef nonnull align 8 dereferenceable(8) %"class.std::basic_ostream"* @_ZStlsISt11char_traitsIcEERSt13basic_ostreamIcT_ES5_PKc(%"class.std::basic_ostream"* noundef nonnull align 8 dereferenceable(8) @_ZSt4cout, i8* noundef getelementptr inbounds ([18 x i8], [18 x i8]* @.str.18, i64 0, i64 0)), !dbg !839
  %2 = call noundef nonnull align 8 dereferenceable(8) %"class.std::basic_ostream"* @_ZNSolsEPFRSoS_E(%"class.std::basic_ostream"* noundef nonnull align 8 dereferenceable(8) %1, %"class.std::basic_ostream"* (%"class.std::basic_ostream"*)* noundef @_ZSt4endlIcSt11char_traitsIcEERSt13basic_ostreamIT_T0_ES6_), !dbg !840
  %3 = call noundef nonnull align 8 dereferenceable(8) %"class.std::basic_ostream"* @_ZStlsISt11char_traitsIcEERSt13basic_ostreamIcT_ES5_PKc(%"class.std::basic_ostream"* noundef nonnull align 8 dereferenceable(8) @_ZSt4cout, i8* noundef getelementptr inbounds ([2 x i8], [2 x i8]* @.str.19, i64 0, i64 0)), !dbg !841
  %4 = call noundef nonnull align 8 dereferenceable(8) %"class.std::basic_ostream"* @_ZNSolsEPFRSoS_E(%"class.std::basic_ostream"* noundef nonnull align 8 dereferenceable(8) %3, %"class.std::basic_ostream"* (%"class.std::basic_ostream"*)* noundef @_ZSt4endlIcSt11char_traitsIcEERSt13basic_ostreamIT_T0_ES6_), !dbg !842
  call void @_Z1Fv(), !dbg !843
  ret void, !dbg !844
}

; Function Attrs: mustprogress noinline optnone uwtable
define dso_local void @_Z1Kv() #0 !dbg !845 {
  %1 = call noundef nonnull align 8 dereferenceable(8) %"class.std::basic_ostream"* @_ZStlsISt11char_traitsIcEERSt13basic_ostreamIcT_ES5_PKc(%"class.std::basic_ostream"* noundef nonnull align 8 dereferenceable(8) @_ZSt4cout, i8* noundef getelementptr inbounds ([18 x i8], [18 x i8]* @.str.20, i64 0, i64 0)), !dbg !846
  %2 = call noundef nonnull align 8 dereferenceable(8) %"class.std::basic_ostream"* @_ZNSolsEPFRSoS_E(%"class.std::basic_ostream"* noundef nonnull align 8 dereferenceable(8) %1, %"class.std::basic_ostream"* (%"class.std::basic_ostream"*)* noundef @_ZSt4endlIcSt11char_traitsIcEERSt13basic_ostreamIT_T0_ES6_), !dbg !847
  %3 = call noundef nonnull align 8 dereferenceable(8) %"class.std::basic_ostream"* @_ZStlsISt11char_traitsIcEERSt13basic_ostreamIcT_ES5_PKc(%"class.std::basic_ostream"* noundef nonnull align 8 dereferenceable(8) @_ZSt4cout, i8* noundef getelementptr inbounds ([2 x i8], [2 x i8]* @.str.21, i64 0, i64 0)), !dbg !848
  %4 = call noundef nonnull align 8 dereferenceable(8) %"class.std::basic_ostream"* @_ZNSolsEPFRSoS_E(%"class.std::basic_ostream"* noundef nonnull align 8 dereferenceable(8) %3, %"class.std::basic_ostream"* (%"class.std::basic_ostream"*)* noundef @_ZSt4endlIcSt11char_traitsIcEERSt13basic_ostreamIT_T0_ES6_), !dbg !849
  call void @_Z1Gv(), !dbg !850
  ret void, !dbg !851
}

; Function Attrs: mustprogress noinline optnone uwtable
define dso_local void @_Z1Qv() #0 !dbg !852 {
  %1 = call noundef nonnull align 8 dereferenceable(8) %"class.std::basic_ostream"* @_ZStlsISt11char_traitsIcEERSt13basic_ostreamIcT_ES5_PKc(%"class.std::basic_ostream"* noundef nonnull align 8 dereferenceable(8) @_ZSt4cout, i8* noundef getelementptr inbounds ([18 x i8], [18 x i8]* @.str.22, i64 0, i64 0)), !dbg !853
  %2 = call noundef nonnull align 8 dereferenceable(8) %"class.std::basic_ostream"* @_ZNSolsEPFRSoS_E(%"class.std::basic_ostream"* noundef nonnull align 8 dereferenceable(8) %1, %"class.std::basic_ostream"* (%"class.std::basic_ostream"*)* noundef @_ZSt4endlIcSt11char_traitsIcEERSt13basic_ostreamIT_T0_ES6_), !dbg !854
  %3 = call noundef nonnull align 8 dereferenceable(8) %"class.std::basic_ostream"* @_ZStlsISt11char_traitsIcEERSt13basic_ostreamIcT_ES5_PKc(%"class.std::basic_ostream"* noundef nonnull align 8 dereferenceable(8) @_ZSt4cout, i8* noundef getelementptr inbounds ([2 x i8], [2 x i8]* @.str.23, i64 0, i64 0)), !dbg !855
  %4 = call noundef nonnull align 8 dereferenceable(8) %"class.std::basic_ostream"* @_ZNSolsEPFRSoS_E(%"class.std::basic_ostream"* noundef nonnull align 8 dereferenceable(8) %3, %"class.std::basic_ostream"* (%"class.std::basic_ostream"*)* noundef @_ZSt4endlIcSt11char_traitsIcEERSt13basic_ostreamIT_T0_ES6_), !dbg !856
  call void @_Z1Mv(), !dbg !857
  ret void, !dbg !858
}

; Function Attrs: mustprogress noinline optnone uwtable
define dso_local void @_Z1Tv() #0 !dbg !859 {
  %1 = call noundef nonnull align 8 dereferenceable(8) %"class.std::basic_ostream"* @_ZStlsISt11char_traitsIcEERSt13basic_ostreamIcT_ES5_PKc(%"class.std::basic_ostream"* noundef nonnull align 8 dereferenceable(8) @_ZSt4cout, i8* noundef getelementptr inbounds ([18 x i8], [18 x i8]* @.str.24, i64 0, i64 0)), !dbg !860
  %2 = call noundef nonnull align 8 dereferenceable(8) %"class.std::basic_ostream"* @_ZNSolsEPFRSoS_E(%"class.std::basic_ostream"* noundef nonnull align 8 dereferenceable(8) %1, %"class.std::basic_ostream"* (%"class.std::basic_ostream"*)* noundef @_ZSt4endlIcSt11char_traitsIcEERSt13basic_ostreamIT_T0_ES6_), !dbg !861
  %3 = call noundef nonnull align 8 dereferenceable(8) %"class.std::basic_ostream"* @_ZStlsISt11char_traitsIcEERSt13basic_ostreamIcT_ES5_PKc(%"class.std::basic_ostream"* noundef nonnull align 8 dereferenceable(8) @_ZSt4cout, i8* noundef getelementptr inbounds ([2 x i8], [2 x i8]* @.str.25, i64 0, i64 0)), !dbg !862
  %4 = call noundef nonnull align 8 dereferenceable(8) %"class.std::basic_ostream"* @_ZNSolsEPFRSoS_E(%"class.std::basic_ostream"* noundef nonnull align 8 dereferenceable(8) %3, %"class.std::basic_ostream"* (%"class.std::basic_ostream"*)* noundef @_ZSt4endlIcSt11char_traitsIcEERSt13basic_ostreamIT_T0_ES6_), !dbg !863
  call void @_Z1Nv(), !dbg !864
  ret void, !dbg !865
}

; Function Attrs: mustprogress noinline norecurse optnone uwtable
define dso_local noundef i32 @main() #2 !dbg !866 {
  call void @_Z1Av(), !dbg !867
  call void @_Z1Bv(), !dbg !868
  call void @_Z1Cv(), !dbg !869
  call void @_Z1Dv(), !dbg !870
  call void @_Z1Ev(), !dbg !871
  call void @_Z1Fv(), !dbg !872
  call void @_Z1Gv(), !dbg !873
  call void @_Z1Hv(), !dbg !874
  call void @_Z1Kv(), !dbg !875
  call void @_Z1Qv(), !dbg !876
  call void @_Z1Tv(), !dbg !877
  call void @_Z1Mv(), !dbg !878
  call void @_Z1Nv(), !dbg !879
  ret i32 0, !dbg !880
}

attributes #0 = { mustprogress noinline optnone uwtable "frame-pointer"="all" "min-legal-vector-width"="0" "no-trapping-math"="true" "stack-protector-buffer-size"="8" "target-cpu"="x86-64" "target-features"="+cx8,+fxsr,+mmx,+sse,+sse2,+x87" "tune-cpu"="generic" }
attributes #1 = { "frame-pointer"="all" "no-trapping-math"="true" "stack-protector-buffer-size"="8" "target-cpu"="x86-64" "target-features"="+cx8,+fxsr,+mmx,+sse,+sse2,+x87" "tune-cpu"="generic" }
attributes #2 = { mustprogress noinline norecurse optnone uwtable "frame-pointer"="all" "min-legal-vector-width"="0" "no-trapping-math"="true" "stack-protector-buffer-size"="8" "target-cpu"="x86-64" "target-features"="+cx8,+fxsr,+mmx,+sse,+sse2,+x87" "tune-cpu"="generic" }

!llvm.dbg.cu = !{!0}
!llvm.module.flags = !{!767, !768, !769, !770, !771, !772, !773}
!llvm.ident = !{!774}

!0 = distinct !DICompileUnit(language: DW_LANG_C_plus_plus_14, file: !1, producer: "Ubuntu clang version 14.0.6", isOptimized: false, runtimeVersion: 0, emissionKind: FullDebug, imports: !2, splitDebugInlining: false, nameTableKind: None)
!1 = !DIFile(filename: "test.cpp", directory: "/home/lulu/CallGraph_DEMO", checksumkind: CSK_MD5, checksum: "d2e4c6a3575c69fef95171bd580d8b31")
!2 = !{!3, !24, !27, !32, !40, !48, !52, !59, !63, !67, !69, !71, !75, !87, !91, !97, !103, !105, !109, !113, !117, !121, !134, !136, !140, !144, !148, !150, !156, !160, !164, !166, !168, !172, !180, !184, !188, !192, !194, !200, !202, !209, !214, !218, !223, !227, !231, !235, !237, !239, !243, !247, !251, !253, !257, !261, !263, !265, !269, !275, !280, !285, !286, !287, !288, !289, !290, !291, !292, !293, !294, !295, !299, !303, !308, !312, !316, !321, !327, !329, !331, !333, !335, !337, !339, !341, !343, !345, !347, !349, !351, !353, !357, !361, !365, !371, !375, !380, !382, !386, !390, !394, !404, !408, !412, !416, !420, !424, !428, !432, !436, !440, !444, !448, !452, !454, !458, !462, !466, !472, !476, !480, !482, !486, !490, !496, !498, !502, !506, !510, !514, !518, !522, !526, !527, !528, !529, !531, !532, !533, !534, !535, !536, !537, !541, !547, !552, !556, !558, !560, !562, !564, !571, !575, !579, !583, !587, !591, !596, !600, !602, !606, !612, !616, !621, !623, !625, !629, !633, !635, !637, !639, !641, !645, !647, !649, !653, !657, !661, !665, !669, !673, !675, !679, !683, !687, !691, !693, !695, !699, !703, !704, !705, !706, !707, !708, !716, !719, !720, !722, !724, !726, !728, !732, !734, !736, !738, !740, !742, !744, !746, !748, !752, !756, !758, !762, !766}
!3 = !DIImportedEntity(tag: DW_TAG_imported_declaration, scope: !4, entity: !5, file: !23, line: 64)
!4 = !DINamespace(name: "std", scope: null)
!5 = !DIDerivedType(tag: DW_TAG_typedef, name: "mbstate_t", file: !6, line: 6, baseType: !7)
!6 = !DIFile(filename: "/usr/include/x86_64-linux-gnu/bits/types/mbstate_t.h", directory: "", checksumkind: CSK_MD5, checksum: "ba8742313715e20e434cf6ccb2db98e3")
!7 = !DIDerivedType(tag: DW_TAG_typedef, name: "__mbstate_t", file: !8, line: 21, baseType: !9)
!8 = !DIFile(filename: "/usr/include/x86_64-linux-gnu/bits/types/__mbstate_t.h", directory: "", checksumkind: CSK_MD5, checksum: "82911a3e689448e3691ded3e0b471a55")
!9 = distinct !DICompositeType(tag: DW_TAG_structure_type, file: !8, line: 13, size: 64, flags: DIFlagTypePassByValue, elements: !10, identifier: "_ZTS11__mbstate_t")
!10 = !{!11, !13}
!11 = !DIDerivedType(tag: DW_TAG_member, name: "__count", scope: !9, file: !8, line: 15, baseType: !12, size: 32)
!12 = !DIBasicType(name: "int", size: 32, encoding: DW_ATE_signed)
!13 = !DIDerivedType(tag: DW_TAG_member, name: "__value", scope: !9, file: !8, line: 20, baseType: !14, size: 32, offset: 32)
!14 = distinct !DICompositeType(tag: DW_TAG_union_type, scope: !9, file: !8, line: 16, size: 32, flags: DIFlagTypePassByValue, elements: !15, identifier: "_ZTSN11__mbstate_tUt_E")
!15 = !{!16, !18}
!16 = !DIDerivedType(tag: DW_TAG_member, name: "__wch", scope: !14, file: !8, line: 18, baseType: !17, size: 32)
!17 = !DIBasicType(name: "unsigned int", size: 32, encoding: DW_ATE_unsigned)
!18 = !DIDerivedType(tag: DW_TAG_member, name: "__wchb", scope: !14, file: !8, line: 19, baseType: !19, size: 32)
!19 = !DICompositeType(tag: DW_TAG_array_type, baseType: !20, size: 32, elements: !21)
!20 = !DIBasicType(name: "char", size: 8, encoding: DW_ATE_signed_char)
!21 = !{!22}
!22 = !DISubrange(count: 4)
!23 = !DIFile(filename: "/usr/bin/../lib/gcc/x86_64-linux-gnu/13/../../../../include/c++/13/cwchar", directory: "")
!24 = !DIImportedEntity(tag: DW_TAG_imported_declaration, scope: !4, entity: !25, file: !23, line: 141)
!25 = !DIDerivedType(tag: DW_TAG_typedef, name: "wint_t", file: !26, line: 20, baseType: !17)
!26 = !DIFile(filename: "/usr/include/x86_64-linux-gnu/bits/types/wint_t.h", directory: "", checksumkind: CSK_MD5, checksum: "aa31b53ef28dc23152ceb41e2763ded3")
!27 = !DIImportedEntity(tag: DW_TAG_imported_declaration, scope: !4, entity: !28, file: !23, line: 143)
!28 = !DISubprogram(name: "btowc", scope: !29, file: !29, line: 309, type: !30, flags: DIFlagPrototyped, spFlags: 0)
!29 = !DIFile(filename: "/usr/include/wchar.h", directory: "", checksumkind: CSK_MD5, checksum: "889114206ea781a9a9a0b33e52589e47")
!30 = !DISubroutineType(types: !31)
!31 = !{!25, !12}
!32 = !DIImportedEntity(tag: DW_TAG_imported_declaration, scope: !4, entity: !33, file: !23, line: 144)
!33 = !DISubprogram(name: "fgetwc", scope: !29, file: !29, line: 935, type: !34, flags: DIFlagPrototyped, spFlags: 0)
!34 = !DISubroutineType(types: !35)
!35 = !{!25, !36}
!36 = !DIDerivedType(tag: DW_TAG_pointer_type, baseType: !37, size: 64)
!37 = !DIDerivedType(tag: DW_TAG_typedef, name: "__FILE", file: !38, line: 5, baseType: !39)
!38 = !DIFile(filename: "/usr/include/x86_64-linux-gnu/bits/types/__FILE.h", directory: "", checksumkind: CSK_MD5, checksum: "72a8fe90981f484acae7c6f3dfc5c2b7")
!39 = !DICompositeType(tag: DW_TAG_structure_type, name: "_IO_FILE", file: !38, line: 4, flags: DIFlagFwdDecl | DIFlagNonTrivial, identifier: "_ZTS8_IO_FILE")
!40 = !DIImportedEntity(tag: DW_TAG_imported_declaration, scope: !4, entity: !41, file: !23, line: 145)
!41 = !DISubprogram(name: "fgetws", scope: !29, file: !29, line: 964, type: !42, flags: DIFlagPrototyped, spFlags: 0)
!42 = !DISubroutineType(types: !43)
!43 = !{!44, !46, !12, !47}
!44 = !DIDerivedType(tag: DW_TAG_pointer_type, baseType: !45, size: 64)
!45 = !DIBasicType(name: "wchar_t", size: 32, encoding: DW_ATE_signed)
!46 = !DIDerivedType(tag: DW_TAG_restrict_type, baseType: !44)
!47 = !DIDerivedType(tag: DW_TAG_restrict_type, baseType: !36)
!48 = !DIImportedEntity(tag: DW_TAG_imported_declaration, scope: !4, entity: !49, file: !23, line: 146)
!49 = !DISubprogram(name: "fputwc", scope: !29, file: !29, line: 949, type: !50, flags: DIFlagPrototyped, spFlags: 0)
!50 = !DISubroutineType(types: !51)
!51 = !{!25, !45, !36}
!52 = !DIImportedEntity(tag: DW_TAG_imported_declaration, scope: !4, entity: !53, file: !23, line: 147)
!53 = !DISubprogram(name: "fputws", scope: !29, file: !29, line: 971, type: !54, flags: DIFlagPrototyped, spFlags: 0)
!54 = !DISubroutineType(types: !55)
!55 = !{!12, !56, !47}
!56 = !DIDerivedType(tag: DW_TAG_restrict_type, baseType: !57)
!57 = !DIDerivedType(tag: DW_TAG_pointer_type, baseType: !58, size: 64)
!58 = !DIDerivedType(tag: DW_TAG_const_type, baseType: !45)
!59 = !DIImportedEntity(tag: DW_TAG_imported_declaration, scope: !4, entity: !60, file: !23, line: 148)
!60 = !DISubprogram(name: "fwide", scope: !29, file: !29, line: 725, type: !61, flags: DIFlagPrototyped, spFlags: 0)
!61 = !DISubroutineType(types: !62)
!62 = !{!12, !36, !12}
!63 = !DIImportedEntity(tag: DW_TAG_imported_declaration, scope: !4, entity: !64, file: !23, line: 149)
!64 = !DISubprogram(name: "fwprintf", scope: !29, file: !29, line: 732, type: !65, flags: DIFlagPrototyped, spFlags: 0)
!65 = !DISubroutineType(types: !66)
!66 = !{!12, !47, !56, null}
!67 = !DIImportedEntity(tag: DW_TAG_imported_declaration, scope: !4, entity: !68, file: !23, line: 150)
!68 = !DISubprogram(name: "fwscanf", linkageName: "__isoc23_fwscanf", scope: !29, file: !29, line: 795, type: !65, flags: DIFlagPrototyped, spFlags: 0)
!69 = !DIImportedEntity(tag: DW_TAG_imported_declaration, scope: !4, entity: !70, file: !23, line: 151)
!70 = !DISubprogram(name: "getwc", scope: !29, file: !29, line: 936, type: !34, flags: DIFlagPrototyped, spFlags: 0)
!71 = !DIImportedEntity(tag: DW_TAG_imported_declaration, scope: !4, entity: !72, file: !23, line: 152)
!72 = !DISubprogram(name: "getwchar", scope: !29, file: !29, line: 942, type: !73, flags: DIFlagPrototyped, spFlags: 0)
!73 = !DISubroutineType(types: !74)
!74 = !{!25}
!75 = !DIImportedEntity(tag: DW_TAG_imported_declaration, scope: !4, entity: !76, file: !23, line: 153)
!76 = !DISubprogram(name: "mbrlen", scope: !29, file: !29, line: 332, type: !77, flags: DIFlagPrototyped, spFlags: 0)
!77 = !DISubroutineType(types: !78)
!78 = !{!79, !82, !79, !85}
!79 = !DIDerivedType(tag: DW_TAG_typedef, name: "size_t", file: !80, line: 46, baseType: !81)
!80 = !DIFile(filename: "/usr/lib/llvm-14/lib/clang/14.0.6/include/stddef.h", directory: "", checksumkind: CSK_MD5, checksum: "2499dd2361b915724b073282bea3a7bc")
!81 = !DIBasicType(name: "unsigned long", size: 64, encoding: DW_ATE_unsigned)
!82 = !DIDerivedType(tag: DW_TAG_restrict_type, baseType: !83)
!83 = !DIDerivedType(tag: DW_TAG_pointer_type, baseType: !84, size: 64)
!84 = !DIDerivedType(tag: DW_TAG_const_type, baseType: !20)
!85 = !DIDerivedType(tag: DW_TAG_restrict_type, baseType: !86)
!86 = !DIDerivedType(tag: DW_TAG_pointer_type, baseType: !5, size: 64)
!87 = !DIImportedEntity(tag: DW_TAG_imported_declaration, scope: !4, entity: !88, file: !23, line: 154)
!88 = !DISubprogram(name: "mbrtowc", scope: !29, file: !29, line: 321, type: !89, flags: DIFlagPrototyped, spFlags: 0)
!89 = !DISubroutineType(types: !90)
!90 = !{!79, !46, !82, !79, !85}
!91 = !DIImportedEntity(tag: DW_TAG_imported_declaration, scope: !4, entity: !92, file: !23, line: 155)
!92 = !DISubprogram(name: "mbsinit", scope: !29, file: !29, line: 317, type: !93, flags: DIFlagPrototyped, spFlags: 0)
!93 = !DISubroutineType(types: !94)
!94 = !{!12, !95}
!95 = !DIDerivedType(tag: DW_TAG_pointer_type, baseType: !96, size: 64)
!96 = !DIDerivedType(tag: DW_TAG_const_type, baseType: !5)
!97 = !DIImportedEntity(tag: DW_TAG_imported_declaration, scope: !4, entity: !98, file: !23, line: 156)
!98 = !DISubprogram(name: "mbsrtowcs", scope: !29, file: !29, line: 362, type: !99, flags: DIFlagPrototyped, spFlags: 0)
!99 = !DISubroutineType(types: !100)
!100 = !{!79, !46, !101, !79, !85}
!101 = !DIDerivedType(tag: DW_TAG_restrict_type, baseType: !102)
!102 = !DIDerivedType(tag: DW_TAG_pointer_type, baseType: !83, size: 64)
!103 = !DIImportedEntity(tag: DW_TAG_imported_declaration, scope: !4, entity: !104, file: !23, line: 157)
!104 = !DISubprogram(name: "putwc", scope: !29, file: !29, line: 950, type: !50, flags: DIFlagPrototyped, spFlags: 0)
!105 = !DIImportedEntity(tag: DW_TAG_imported_declaration, scope: !4, entity: !106, file: !23, line: 158)
!106 = !DISubprogram(name: "putwchar", scope: !29, file: !29, line: 956, type: !107, flags: DIFlagPrototyped, spFlags: 0)
!107 = !DISubroutineType(types: !108)
!108 = !{!25, !45}
!109 = !DIImportedEntity(tag: DW_TAG_imported_declaration, scope: !4, entity: !110, file: !23, line: 160)
!110 = !DISubprogram(name: "swprintf", scope: !29, file: !29, line: 742, type: !111, flags: DIFlagPrototyped, spFlags: 0)
!111 = !DISubroutineType(types: !112)
!112 = !{!12, !46, !79, !56, null}
!113 = !DIImportedEntity(tag: DW_TAG_imported_declaration, scope: !4, entity: !114, file: !23, line: 162)
!114 = !DISubprogram(name: "swscanf", linkageName: "__isoc23_swscanf", scope: !29, file: !29, line: 802, type: !115, flags: DIFlagPrototyped, spFlags: 0)
!115 = !DISubroutineType(types: !116)
!116 = !{!12, !56, !56, null}
!117 = !DIImportedEntity(tag: DW_TAG_imported_declaration, scope: !4, entity: !118, file: !23, line: 163)
!118 = !DISubprogram(name: "ungetwc", scope: !29, file: !29, line: 979, type: !119, flags: DIFlagPrototyped, spFlags: 0)
!119 = !DISubroutineType(types: !120)
!120 = !{!25, !25, !36}
!121 = !DIImportedEntity(tag: DW_TAG_imported_declaration, scope: !4, entity: !122, file: !23, line: 164)
!122 = !DISubprogram(name: "vfwprintf", scope: !29, file: !29, line: 750, type: !123, flags: DIFlagPrototyped, spFlags: 0)
!123 = !DISubroutineType(types: !124)
!124 = !{!12, !47, !56, !125}
!125 = !DIDerivedType(tag: DW_TAG_pointer_type, baseType: !126, size: 64)
!126 = distinct !DICompositeType(tag: DW_TAG_structure_type, name: "__va_list_tag", size: 192, flags: DIFlagTypePassByValue, elements: !127, identifier: "_ZTS13__va_list_tag")
!127 = !{!128, !130, !131, !133}
!128 = !DIDerivedType(tag: DW_TAG_member, name: "gp_offset", scope: !126, file: !129, baseType: !17, size: 32)
!129 = !DIFile(filename: "test.cpp", directory: "/home/lulu/CallGraph_DEMO")
!130 = !DIDerivedType(tag: DW_TAG_member, name: "fp_offset", scope: !126, file: !129, baseType: !17, size: 32, offset: 32)
!131 = !DIDerivedType(tag: DW_TAG_member, name: "overflow_arg_area", scope: !126, file: !129, baseType: !132, size: 64, offset: 64)
!132 = !DIDerivedType(tag: DW_TAG_pointer_type, baseType: null, size: 64)
!133 = !DIDerivedType(tag: DW_TAG_member, name: "reg_save_area", scope: !126, file: !129, baseType: !132, size: 64, offset: 128)
!134 = !DIImportedEntity(tag: DW_TAG_imported_declaration, scope: !4, entity: !135, file: !23, line: 166)
!135 = !DISubprogram(name: "vfwscanf", linkageName: "__isoc23_vfwscanf", scope: !29, file: !29, line: 875, type: !123, flags: DIFlagPrototyped, spFlags: 0)
!136 = !DIImportedEntity(tag: DW_TAG_imported_declaration, scope: !4, entity: !137, file: !23, line: 169)
!137 = !DISubprogram(name: "vswprintf", scope: !29, file: !29, line: 763, type: !138, flags: DIFlagPrototyped, spFlags: 0)
!138 = !DISubroutineType(types: !139)
!139 = !{!12, !46, !79, !56, !125}
!140 = !DIImportedEntity(tag: DW_TAG_imported_declaration, scope: !4, entity: !141, file: !23, line: 172)
!141 = !DISubprogram(name: "vswscanf", linkageName: "__isoc23_vswscanf", scope: !29, file: !29, line: 882, type: !142, flags: DIFlagPrototyped, spFlags: 0)
!142 = !DISubroutineType(types: !143)
!143 = !{!12, !56, !56, !125}
!144 = !DIImportedEntity(tag: DW_TAG_imported_declaration, scope: !4, entity: !145, file: !23, line: 174)
!145 = !DISubprogram(name: "vwprintf", scope: !29, file: !29, line: 758, type: !146, flags: DIFlagPrototyped, spFlags: 0)
!146 = !DISubroutineType(types: !147)
!147 = !{!12, !56, !125}
!148 = !DIImportedEntity(tag: DW_TAG_imported_declaration, scope: !4, entity: !149, file: !23, line: 176)
!149 = !DISubprogram(name: "vwscanf", linkageName: "__isoc23_vwscanf", scope: !29, file: !29, line: 879, type: !146, flags: DIFlagPrototyped, spFlags: 0)
!150 = !DIImportedEntity(tag: DW_TAG_imported_declaration, scope: !4, entity: !151, file: !23, line: 178)
!151 = !DISubprogram(name: "wcrtomb", scope: !29, file: !29, line: 326, type: !152, flags: DIFlagPrototyped, spFlags: 0)
!152 = !DISubroutineType(types: !153)
!153 = !{!79, !154, !45, !85}
!154 = !DIDerivedType(tag: DW_TAG_restrict_type, baseType: !155)
!155 = !DIDerivedType(tag: DW_TAG_pointer_type, baseType: !20, size: 64)
!156 = !DIImportedEntity(tag: DW_TAG_imported_declaration, scope: !4, entity: !157, file: !23, line: 179)
!157 = !DISubprogram(name: "wcscat", scope: !29, file: !29, line: 121, type: !158, flags: DIFlagPrototyped, spFlags: 0)
!158 = !DISubroutineType(types: !159)
!159 = !{!44, !46, !56}
!160 = !DIImportedEntity(tag: DW_TAG_imported_declaration, scope: !4, entity: !161, file: !23, line: 180)
!161 = !DISubprogram(name: "wcscmp", scope: !29, file: !29, line: 130, type: !162, flags: DIFlagPrototyped, spFlags: 0)
!162 = !DISubroutineType(types: !163)
!163 = !{!12, !57, !57}
!164 = !DIImportedEntity(tag: DW_TAG_imported_declaration, scope: !4, entity: !165, file: !23, line: 181)
!165 = !DISubprogram(name: "wcscoll", scope: !29, file: !29, line: 155, type: !162, flags: DIFlagPrototyped, spFlags: 0)
!166 = !DIImportedEntity(tag: DW_TAG_imported_declaration, scope: !4, entity: !167, file: !23, line: 182)
!167 = !DISubprogram(name: "wcscpy", scope: !29, file: !29, line: 98, type: !158, flags: DIFlagPrototyped, spFlags: 0)
!168 = !DIImportedEntity(tag: DW_TAG_imported_declaration, scope: !4, entity: !169, file: !23, line: 183)
!169 = !DISubprogram(name: "wcscspn", scope: !29, file: !29, line: 212, type: !170, flags: DIFlagPrototyped, spFlags: 0)
!170 = !DISubroutineType(types: !171)
!171 = !{!79, !57, !57}
!172 = !DIImportedEntity(tag: DW_TAG_imported_declaration, scope: !4, entity: !173, file: !23, line: 184)
!173 = !DISubprogram(name: "wcsftime", scope: !29, file: !29, line: 1043, type: !174, flags: DIFlagPrototyped, spFlags: 0)
!174 = !DISubroutineType(types: !175)
!175 = !{!79, !46, !79, !56, !176}
!176 = !DIDerivedType(tag: DW_TAG_restrict_type, baseType: !177)
!177 = !DIDerivedType(tag: DW_TAG_pointer_type, baseType: !178, size: 64)
!178 = !DIDerivedType(tag: DW_TAG_const_type, baseType: !179)
!179 = !DICompositeType(tag: DW_TAG_structure_type, name: "tm", file: !29, line: 94, flags: DIFlagFwdDecl | DIFlagNonTrivial, identifier: "_ZTS2tm")
!180 = !DIImportedEntity(tag: DW_TAG_imported_declaration, scope: !4, entity: !181, file: !23, line: 185)
!181 = !DISubprogram(name: "wcslen", scope: !29, file: !29, line: 247, type: !182, flags: DIFlagPrototyped, spFlags: 0)
!182 = !DISubroutineType(types: !183)
!183 = !{!79, !57}
!184 = !DIImportedEntity(tag: DW_TAG_imported_declaration, scope: !4, entity: !185, file: !23, line: 186)
!185 = !DISubprogram(name: "wcsncat", scope: !29, file: !29, line: 125, type: !186, flags: DIFlagPrototyped, spFlags: 0)
!186 = !DISubroutineType(types: !187)
!187 = !{!44, !46, !56, !79}
!188 = !DIImportedEntity(tag: DW_TAG_imported_declaration, scope: !4, entity: !189, file: !23, line: 187)
!189 = !DISubprogram(name: "wcsncmp", scope: !29, file: !29, line: 133, type: !190, flags: DIFlagPrototyped, spFlags: 0)
!190 = !DISubroutineType(types: !191)
!191 = !{!12, !57, !57, !79}
!192 = !DIImportedEntity(tag: DW_TAG_imported_declaration, scope: !4, entity: !193, file: !23, line: 188)
!193 = !DISubprogram(name: "wcsncpy", scope: !29, file: !29, line: 103, type: !186, flags: DIFlagPrototyped, spFlags: 0)
!194 = !DIImportedEntity(tag: DW_TAG_imported_declaration, scope: !4, entity: !195, file: !23, line: 189)
!195 = !DISubprogram(name: "wcsrtombs", scope: !29, file: !29, line: 368, type: !196, flags: DIFlagPrototyped, spFlags: 0)
!196 = !DISubroutineType(types: !197)
!197 = !{!79, !154, !198, !79, !85}
!198 = !DIDerivedType(tag: DW_TAG_restrict_type, baseType: !199)
!199 = !DIDerivedType(tag: DW_TAG_pointer_type, baseType: !57, size: 64)
!200 = !DIImportedEntity(tag: DW_TAG_imported_declaration, scope: !4, entity: !201, file: !23, line: 190)
!201 = !DISubprogram(name: "wcsspn", scope: !29, file: !29, line: 216, type: !170, flags: DIFlagPrototyped, spFlags: 0)
!202 = !DIImportedEntity(tag: DW_TAG_imported_declaration, scope: !4, entity: !203, file: !23, line: 191)
!203 = !DISubprogram(name: "wcstod", scope: !29, file: !29, line: 402, type: !204, flags: DIFlagPrototyped, spFlags: 0)
!204 = !DISubroutineType(types: !205)
!205 = !{!206, !56, !207}
!206 = !DIBasicType(name: "double", size: 64, encoding: DW_ATE_float)
!207 = !DIDerivedType(tag: DW_TAG_restrict_type, baseType: !208)
!208 = !DIDerivedType(tag: DW_TAG_pointer_type, baseType: !44, size: 64)
!209 = !DIImportedEntity(tag: DW_TAG_imported_declaration, scope: !4, entity: !210, file: !23, line: 193)
!210 = !DISubprogram(name: "wcstof", scope: !29, file: !29, line: 407, type: !211, flags: DIFlagPrototyped, spFlags: 0)
!211 = !DISubroutineType(types: !212)
!212 = !{!213, !56, !207}
!213 = !DIBasicType(name: "float", size: 32, encoding: DW_ATE_float)
!214 = !DIImportedEntity(tag: DW_TAG_imported_declaration, scope: !4, entity: !215, file: !23, line: 195)
!215 = !DISubprogram(name: "wcstok", scope: !29, file: !29, line: 242, type: !216, flags: DIFlagPrototyped, spFlags: 0)
!216 = !DISubroutineType(types: !217)
!217 = !{!44, !46, !56, !207}
!218 = !DIImportedEntity(tag: DW_TAG_imported_declaration, scope: !4, entity: !219, file: !23, line: 196)
!219 = !DISubprogram(name: "wcstol", linkageName: "__isoc23_wcstol", scope: !29, file: !29, line: 500, type: !220, flags: DIFlagPrototyped, spFlags: 0)
!220 = !DISubroutineType(types: !221)
!221 = !{!222, !56, !207, !12}
!222 = !DIBasicType(name: "long", size: 64, encoding: DW_ATE_signed)
!223 = !DIImportedEntity(tag: DW_TAG_imported_declaration, scope: !4, entity: !224, file: !23, line: 197)
!224 = !DISubprogram(name: "wcstoul", linkageName: "__isoc23_wcstoul", scope: !29, file: !29, line: 503, type: !225, flags: DIFlagPrototyped, spFlags: 0)
!225 = !DISubroutineType(types: !226)
!226 = !{!81, !56, !207, !12}
!227 = !DIImportedEntity(tag: DW_TAG_imported_declaration, scope: !4, entity: !228, file: !23, line: 198)
!228 = !DISubprogram(name: "wcsxfrm", scope: !29, file: !29, line: 159, type: !229, flags: DIFlagPrototyped, spFlags: 0)
!229 = !DISubroutineType(types: !230)
!230 = !{!79, !46, !56, !79}
!231 = !DIImportedEntity(tag: DW_TAG_imported_declaration, scope: !4, entity: !232, file: !23, line: 199)
!232 = !DISubprogram(name: "wctob", scope: !29, file: !29, line: 313, type: !233, flags: DIFlagPrototyped, spFlags: 0)
!233 = !DISubroutineType(types: !234)
!234 = !{!12, !25}
!235 = !DIImportedEntity(tag: DW_TAG_imported_declaration, scope: !4, entity: !236, file: !23, line: 200)
!236 = !DISubprogram(name: "wmemcmp", scope: !29, file: !29, line: 283, type: !190, flags: DIFlagPrototyped, spFlags: 0)
!237 = !DIImportedEntity(tag: DW_TAG_imported_declaration, scope: !4, entity: !238, file: !23, line: 201)
!238 = !DISubprogram(name: "wmemcpy", scope: !29, file: !29, line: 287, type: !186, flags: DIFlagPrototyped, spFlags: 0)
!239 = !DIImportedEntity(tag: DW_TAG_imported_declaration, scope: !4, entity: !240, file: !23, line: 202)
!240 = !DISubprogram(name: "wmemmove", scope: !29, file: !29, line: 292, type: !241, flags: DIFlagPrototyped, spFlags: 0)
!241 = !DISubroutineType(types: !242)
!242 = !{!44, !44, !57, !79}
!243 = !DIImportedEntity(tag: DW_TAG_imported_declaration, scope: !4, entity: !244, file: !23, line: 203)
!244 = !DISubprogram(name: "wmemset", scope: !29, file: !29, line: 296, type: !245, flags: DIFlagPrototyped, spFlags: 0)
!245 = !DISubroutineType(types: !246)
!246 = !{!44, !44, !45, !79}
!247 = !DIImportedEntity(tag: DW_TAG_imported_declaration, scope: !4, entity: !248, file: !23, line: 204)
!248 = !DISubprogram(name: "wprintf", scope: !29, file: !29, line: 739, type: !249, flags: DIFlagPrototyped, spFlags: 0)
!249 = !DISubroutineType(types: !250)
!250 = !{!12, !56, null}
!251 = !DIImportedEntity(tag: DW_TAG_imported_declaration, scope: !4, entity: !252, file: !23, line: 205)
!252 = !DISubprogram(name: "wscanf", linkageName: "__isoc23_wscanf", scope: !29, file: !29, line: 799, type: !249, flags: DIFlagPrototyped, spFlags: 0)
!253 = !DIImportedEntity(tag: DW_TAG_imported_declaration, scope: !4, entity: !254, file: !23, line: 206)
!254 = !DISubprogram(name: "wcschr", scope: !29, file: !29, line: 189, type: !255, flags: DIFlagPrototyped, spFlags: 0)
!255 = !DISubroutineType(types: !256)
!256 = !{!44, !57, !45}
!257 = !DIImportedEntity(tag: DW_TAG_imported_declaration, scope: !4, entity: !258, file: !23, line: 207)
!258 = !DISubprogram(name: "wcspbrk", scope: !29, file: !29, line: 226, type: !259, flags: DIFlagPrototyped, spFlags: 0)
!259 = !DISubroutineType(types: !260)
!260 = !{!44, !57, !57}
!261 = !DIImportedEntity(tag: DW_TAG_imported_declaration, scope: !4, entity: !262, file: !23, line: 208)
!262 = !DISubprogram(name: "wcsrchr", scope: !29, file: !29, line: 199, type: !255, flags: DIFlagPrototyped, spFlags: 0)
!263 = !DIImportedEntity(tag: DW_TAG_imported_declaration, scope: !4, entity: !264, file: !23, line: 209)
!264 = !DISubprogram(name: "wcsstr", scope: !29, file: !29, line: 237, type: !259, flags: DIFlagPrototyped, spFlags: 0)
!265 = !DIImportedEntity(tag: DW_TAG_imported_declaration, scope: !4, entity: !266, file: !23, line: 210)
!266 = !DISubprogram(name: "wmemchr", scope: !29, file: !29, line: 278, type: !267, flags: DIFlagPrototyped, spFlags: 0)
!267 = !DISubroutineType(types: !268)
!268 = !{!44, !57, !45, !79}
!269 = !DIImportedEntity(tag: DW_TAG_imported_declaration, scope: !270, entity: !271, file: !23, line: 251)
!270 = !DINamespace(name: "__gnu_cxx", scope: null)
!271 = !DISubprogram(name: "wcstold", scope: !29, file: !29, line: 409, type: !272, flags: DIFlagPrototyped, spFlags: 0)
!272 = !DISubroutineType(types: !273)
!273 = !{!274, !56, !207}
!274 = !DIBasicType(name: "long double", size: 128, encoding: DW_ATE_float)
!275 = !DIImportedEntity(tag: DW_TAG_imported_declaration, scope: !270, entity: !276, file: !23, line: 260)
!276 = !DISubprogram(name: "wcstoll", linkageName: "__isoc23_wcstoll", scope: !29, file: !29, line: 508, type: !277, flags: DIFlagPrototyped, spFlags: 0)
!277 = !DISubroutineType(types: !278)
!278 = !{!279, !56, !207, !12}
!279 = !DIBasicType(name: "long long", size: 64, encoding: DW_ATE_signed)
!280 = !DIImportedEntity(tag: DW_TAG_imported_declaration, scope: !270, entity: !281, file: !23, line: 261)
!281 = !DISubprogram(name: "wcstoull", linkageName: "__isoc23_wcstoull", scope: !29, file: !29, line: 513, type: !282, flags: DIFlagPrototyped, spFlags: 0)
!282 = !DISubroutineType(types: !283)
!283 = !{!284, !56, !207, !12}
!284 = !DIBasicType(name: "unsigned long long", size: 64, encoding: DW_ATE_unsigned)
!285 = !DIImportedEntity(tag: DW_TAG_imported_declaration, scope: !4, entity: !271, file: !23, line: 267)
!286 = !DIImportedEntity(tag: DW_TAG_imported_declaration, scope: !4, entity: !276, file: !23, line: 268)
!287 = !DIImportedEntity(tag: DW_TAG_imported_declaration, scope: !4, entity: !281, file: !23, line: 269)
!288 = !DIImportedEntity(tag: DW_TAG_imported_declaration, scope: !4, entity: !210, file: !23, line: 283)
!289 = !DIImportedEntity(tag: DW_TAG_imported_declaration, scope: !4, entity: !135, file: !23, line: 286)
!290 = !DIImportedEntity(tag: DW_TAG_imported_declaration, scope: !4, entity: !141, file: !23, line: 289)
!291 = !DIImportedEntity(tag: DW_TAG_imported_declaration, scope: !4, entity: !149, file: !23, line: 292)
!292 = !DIImportedEntity(tag: DW_TAG_imported_declaration, scope: !4, entity: !271, file: !23, line: 296)
!293 = !DIImportedEntity(tag: DW_TAG_imported_declaration, scope: !4, entity: !276, file: !23, line: 297)
!294 = !DIImportedEntity(tag: DW_TAG_imported_declaration, scope: !4, entity: !281, file: !23, line: 298)
!295 = !DIImportedEntity(tag: DW_TAG_imported_declaration, scope: !4, entity: !296, file: !297, line: 66)
!296 = !DICompositeType(tag: DW_TAG_class_type, name: "exception_ptr", scope: !298, file: !297, line: 97, size: 64, flags: DIFlagFwdDecl | DIFlagNonTrivial, identifier: "_ZTSNSt15__exception_ptr13exception_ptrE")
!297 = !DIFile(filename: "/usr/bin/../lib/gcc/x86_64-linux-gnu/13/../../../../include/c++/13/bits/exception_ptr.h", directory: "", checksumkind: CSK_MD5, checksum: "314ad14748ccb9ff85c65d17ebb0828b")
!298 = !DINamespace(name: "__exception_ptr", scope: !4)
!299 = !DIImportedEntity(tag: DW_TAG_imported_declaration, scope: !298, entity: !300, file: !297, line: 85)
!300 = !DISubprogram(name: "rethrow_exception", linkageName: "_ZSt17rethrow_exceptionNSt15__exception_ptr13exception_ptrE", scope: !4, file: !297, line: 81, type: !301, flags: DIFlagPrototyped | DIFlagNoReturn, spFlags: 0)
!301 = !DISubroutineType(types: !302)
!302 = !{null, !296}
!303 = !DIImportedEntity(tag: DW_TAG_imported_declaration, scope: !4, entity: !304, file: !297, line: 243)
!304 = !DISubprogram(name: "swap", linkageName: "_ZNSt15__exception_ptr4swapERNS_13exception_ptrES1_", scope: !298, file: !297, line: 230, type: !305, flags: DIFlagPrototyped, spFlags: 0)
!305 = !DISubroutineType(types: !306)
!306 = !{null, !307, !307}
!307 = !DIDerivedType(tag: DW_TAG_reference_type, baseType: !296, size: 64)
!308 = !DIImportedEntity(tag: DW_TAG_imported_declaration, scope: !4, entity: !309, file: !311, line: 53)
!309 = !DICompositeType(tag: DW_TAG_structure_type, name: "lconv", file: !310, line: 51, size: 768, flags: DIFlagFwdDecl, identifier: "_ZTS5lconv")
!310 = !DIFile(filename: "/usr/include/locale.h", directory: "", checksumkind: CSK_MD5, checksum: "23ebf40dea0ab9a74daf64a0eaa99518")
!311 = !DIFile(filename: "/usr/bin/../lib/gcc/x86_64-linux-gnu/13/../../../../include/c++/13/clocale", directory: "")
!312 = !DIImportedEntity(tag: DW_TAG_imported_declaration, scope: !4, entity: !313, file: !311, line: 54)
!313 = !DISubprogram(name: "setlocale", scope: !310, file: !310, line: 122, type: !314, flags: DIFlagPrototyped, spFlags: 0)
!314 = !DISubroutineType(types: !315)
!315 = !{!155, !12, !83}
!316 = !DIImportedEntity(tag: DW_TAG_imported_declaration, scope: !4, entity: !317, file: !311, line: 55)
!317 = !DISubprogram(name: "localeconv", scope: !310, file: !310, line: 125, type: !318, flags: DIFlagPrototyped, spFlags: 0)
!318 = !DISubroutineType(types: !319)
!319 = !{!320}
!320 = !DIDerivedType(tag: DW_TAG_pointer_type, baseType: !309, size: 64)
!321 = !DIImportedEntity(tag: DW_TAG_imported_declaration, scope: !4, entity: !322, file: !326, line: 64)
!322 = !DISubprogram(name: "isalnum", scope: !323, file: !323, line: 108, type: !324, flags: DIFlagPrototyped, spFlags: 0)
!323 = !DIFile(filename: "/usr/include/ctype.h", directory: "", checksumkind: CSK_MD5, checksum: "43fd45dcf96e8fb7d8f14700096497c7")
!324 = !DISubroutineType(types: !325)
!325 = !{!12, !12}
!326 = !DIFile(filename: "/usr/bin/../lib/gcc/x86_64-linux-gnu/13/../../../../include/c++/13/cctype", directory: "")
!327 = !DIImportedEntity(tag: DW_TAG_imported_declaration, scope: !4, entity: !328, file: !326, line: 65)
!328 = !DISubprogram(name: "isalpha", scope: !323, file: !323, line: 109, type: !324, flags: DIFlagPrototyped, spFlags: 0)
!329 = !DIImportedEntity(tag: DW_TAG_imported_declaration, scope: !4, entity: !330, file: !326, line: 66)
!330 = !DISubprogram(name: "iscntrl", scope: !323, file: !323, line: 110, type: !324, flags: DIFlagPrototyped, spFlags: 0)
!331 = !DIImportedEntity(tag: DW_TAG_imported_declaration, scope: !4, entity: !332, file: !326, line: 67)
!332 = !DISubprogram(name: "isdigit", scope: !323, file: !323, line: 111, type: !324, flags: DIFlagPrototyped, spFlags: 0)
!333 = !DIImportedEntity(tag: DW_TAG_imported_declaration, scope: !4, entity: !334, file: !326, line: 68)
!334 = !DISubprogram(name: "isgraph", scope: !323, file: !323, line: 113, type: !324, flags: DIFlagPrototyped, spFlags: 0)
!335 = !DIImportedEntity(tag: DW_TAG_imported_declaration, scope: !4, entity: !336, file: !326, line: 69)
!336 = !DISubprogram(name: "islower", scope: !323, file: !323, line: 112, type: !324, flags: DIFlagPrototyped, spFlags: 0)
!337 = !DIImportedEntity(tag: DW_TAG_imported_declaration, scope: !4, entity: !338, file: !326, line: 70)
!338 = !DISubprogram(name: "isprint", scope: !323, file: !323, line: 114, type: !324, flags: DIFlagPrototyped, spFlags: 0)
!339 = !DIImportedEntity(tag: DW_TAG_imported_declaration, scope: !4, entity: !340, file: !326, line: 71)
!340 = !DISubprogram(name: "ispunct", scope: !323, file: !323, line: 115, type: !324, flags: DIFlagPrototyped, spFlags: 0)
!341 = !DIImportedEntity(tag: DW_TAG_imported_declaration, scope: !4, entity: !342, file: !326, line: 72)
!342 = !DISubprogram(name: "isspace", scope: !323, file: !323, line: 116, type: !324, flags: DIFlagPrototyped, spFlags: 0)
!343 = !DIImportedEntity(tag: DW_TAG_imported_declaration, scope: !4, entity: !344, file: !326, line: 73)
!344 = !DISubprogram(name: "isupper", scope: !323, file: !323, line: 117, type: !324, flags: DIFlagPrototyped, spFlags: 0)
!345 = !DIImportedEntity(tag: DW_TAG_imported_declaration, scope: !4, entity: !346, file: !326, line: 74)
!346 = !DISubprogram(name: "isxdigit", scope: !323, file: !323, line: 118, type: !324, flags: DIFlagPrototyped, spFlags: 0)
!347 = !DIImportedEntity(tag: DW_TAG_imported_declaration, scope: !4, entity: !348, file: !326, line: 75)
!348 = !DISubprogram(name: "tolower", scope: !323, file: !323, line: 122, type: !324, flags: DIFlagPrototyped, spFlags: 0)
!349 = !DIImportedEntity(tag: DW_TAG_imported_declaration, scope: !4, entity: !350, file: !326, line: 76)
!350 = !DISubprogram(name: "toupper", scope: !323, file: !323, line: 125, type: !324, flags: DIFlagPrototyped, spFlags: 0)
!351 = !DIImportedEntity(tag: DW_TAG_imported_declaration, scope: !4, entity: !352, file: !326, line: 87)
!352 = !DISubprogram(name: "isblank", scope: !323, file: !323, line: 130, type: !324, flags: DIFlagPrototyped, spFlags: 0)
!353 = !DIImportedEntity(tag: DW_TAG_imported_module, scope: !354, entity: !355, file: !356, line: 58)
!354 = !DINamespace(name: "__gnu_debug", scope: null)
!355 = !DINamespace(name: "__debug", scope: !4)
!356 = !DIFile(filename: "/usr/bin/../lib/gcc/x86_64-linux-gnu/13/../../../../include/c++/13/debug/debug.h", directory: "", checksumkind: CSK_MD5, checksum: "752210a319f5f5d356cc29cd1ce3cdc7")
!357 = !DIImportedEntity(tag: DW_TAG_imported_declaration, scope: !4, entity: !358, file: !360, line: 52)
!358 = !DISubprogram(name: "abs", scope: !359, file: !359, line: 980, type: !324, flags: DIFlagPrototyped, spFlags: 0)
!359 = !DIFile(filename: "/usr/include/stdlib.h", directory: "", checksumkind: CSK_MD5, checksum: "7fa2ecb2348a66f8b44ab9a15abd0b72")
!360 = !DIFile(filename: "/usr/bin/../lib/gcc/x86_64-linux-gnu/13/../../../../include/c++/13/bits/std_abs.h", directory: "")
!361 = !DIImportedEntity(tag: DW_TAG_imported_declaration, scope: !4, entity: !362, file: !364, line: 131)
!362 = !DIDerivedType(tag: DW_TAG_typedef, name: "div_t", file: !359, line: 63, baseType: !363)
!363 = !DICompositeType(tag: DW_TAG_structure_type, file: !359, line: 59, size: 64, flags: DIFlagFwdDecl, identifier: "_ZTS5div_t")
!364 = !DIFile(filename: "/usr/bin/../lib/gcc/x86_64-linux-gnu/13/../../../../include/c++/13/cstdlib", directory: "")
!365 = !DIImportedEntity(tag: DW_TAG_imported_declaration, scope: !4, entity: !366, file: !364, line: 132)
!366 = !DIDerivedType(tag: DW_TAG_typedef, name: "ldiv_t", file: !359, line: 71, baseType: !367)
!367 = distinct !DICompositeType(tag: DW_TAG_structure_type, file: !359, line: 67, size: 128, flags: DIFlagTypePassByValue, elements: !368, identifier: "_ZTS6ldiv_t")
!368 = !{!369, !370}
!369 = !DIDerivedType(tag: DW_TAG_member, name: "quot", scope: !367, file: !359, line: 69, baseType: !222, size: 64)
!370 = !DIDerivedType(tag: DW_TAG_member, name: "rem", scope: !367, file: !359, line: 70, baseType: !222, size: 64, offset: 64)
!371 = !DIImportedEntity(tag: DW_TAG_imported_declaration, scope: !4, entity: !372, file: !364, line: 134)
!372 = !DISubprogram(name: "abort", scope: !359, file: !359, line: 730, type: !373, flags: DIFlagPrototyped | DIFlagNoReturn, spFlags: 0)
!373 = !DISubroutineType(types: !374)
!374 = !{null}
!375 = !DIImportedEntity(tag: DW_TAG_imported_declaration, scope: !4, entity: !376, file: !364, line: 138)
!376 = !DISubprogram(name: "atexit", scope: !359, file: !359, line: 734, type: !377, flags: DIFlagPrototyped, spFlags: 0)
!377 = !DISubroutineType(types: !378)
!378 = !{!12, !379}
!379 = !DIDerivedType(tag: DW_TAG_pointer_type, baseType: !373, size: 64)
!380 = !DIImportedEntity(tag: DW_TAG_imported_declaration, scope: !4, entity: !381, file: !364, line: 141)
!381 = !DISubprogram(name: "at_quick_exit", scope: !359, file: !359, line: 739, type: !377, flags: DIFlagPrototyped, spFlags: 0)
!382 = !DIImportedEntity(tag: DW_TAG_imported_declaration, scope: !4, entity: !383, file: !364, line: 144)
!383 = !DISubprogram(name: "atof", scope: !359, file: !359, line: 102, type: !384, flags: DIFlagPrototyped, spFlags: 0)
!384 = !DISubroutineType(types: !385)
!385 = !{!206, !83}
!386 = !DIImportedEntity(tag: DW_TAG_imported_declaration, scope: !4, entity: !387, file: !364, line: 145)
!387 = !DISubprogram(name: "atoi", scope: !359, file: !359, line: 105, type: !388, flags: DIFlagPrototyped, spFlags: 0)
!388 = !DISubroutineType(types: !389)
!389 = !{!12, !83}
!390 = !DIImportedEntity(tag: DW_TAG_imported_declaration, scope: !4, entity: !391, file: !364, line: 146)
!391 = !DISubprogram(name: "atol", scope: !359, file: !359, line: 108, type: !392, flags: DIFlagPrototyped, spFlags: 0)
!392 = !DISubroutineType(types: !393)
!393 = !{!222, !83}
!394 = !DIImportedEntity(tag: DW_TAG_imported_declaration, scope: !4, entity: !395, file: !364, line: 147)
!395 = !DISubprogram(name: "bsearch", scope: !359, file: !359, line: 960, type: !396, flags: DIFlagPrototyped, spFlags: 0)
!396 = !DISubroutineType(types: !397)
!397 = !{!132, !398, !398, !79, !79, !400}
!398 = !DIDerivedType(tag: DW_TAG_pointer_type, baseType: !399, size: 64)
!399 = !DIDerivedType(tag: DW_TAG_const_type, baseType: null)
!400 = !DIDerivedType(tag: DW_TAG_typedef, name: "__compar_fn_t", file: !359, line: 948, baseType: !401)
!401 = !DIDerivedType(tag: DW_TAG_pointer_type, baseType: !402, size: 64)
!402 = !DISubroutineType(types: !403)
!403 = !{!12, !398, !398}
!404 = !DIImportedEntity(tag: DW_TAG_imported_declaration, scope: !4, entity: !405, file: !364, line: 148)
!405 = !DISubprogram(name: "calloc", scope: !359, file: !359, line: 675, type: !406, flags: DIFlagPrototyped, spFlags: 0)
!406 = !DISubroutineType(types: !407)
!407 = !{!132, !79, !79}
!408 = !DIImportedEntity(tag: DW_TAG_imported_declaration, scope: !4, entity: !409, file: !364, line: 149)
!409 = !DISubprogram(name: "div", scope: !359, file: !359, line: 992, type: !410, flags: DIFlagPrototyped, spFlags: 0)
!410 = !DISubroutineType(types: !411)
!411 = !{!362, !12, !12}
!412 = !DIImportedEntity(tag: DW_TAG_imported_declaration, scope: !4, entity: !413, file: !364, line: 150)
!413 = !DISubprogram(name: "exit", scope: !359, file: !359, line: 756, type: !414, flags: DIFlagPrototyped | DIFlagNoReturn, spFlags: 0)
!414 = !DISubroutineType(types: !415)
!415 = !{null, !12}
!416 = !DIImportedEntity(tag: DW_TAG_imported_declaration, scope: !4, entity: !417, file: !364, line: 151)
!417 = !DISubprogram(name: "free", scope: !359, file: !359, line: 687, type: !418, flags: DIFlagPrototyped, spFlags: 0)
!418 = !DISubroutineType(types: !419)
!419 = !{null, !132}
!420 = !DIImportedEntity(tag: DW_TAG_imported_declaration, scope: !4, entity: !421, file: !364, line: 152)
!421 = !DISubprogram(name: "getenv", scope: !359, file: !359, line: 773, type: !422, flags: DIFlagPrototyped, spFlags: 0)
!422 = !DISubroutineType(types: !423)
!423 = !{!155, !83}
!424 = !DIImportedEntity(tag: DW_TAG_imported_declaration, scope: !4, entity: !425, file: !364, line: 153)
!425 = !DISubprogram(name: "labs", scope: !359, file: !359, line: 981, type: !426, flags: DIFlagPrototyped, spFlags: 0)
!426 = !DISubroutineType(types: !427)
!427 = !{!222, !222}
!428 = !DIImportedEntity(tag: DW_TAG_imported_declaration, scope: !4, entity: !429, file: !364, line: 154)
!429 = !DISubprogram(name: "ldiv", scope: !359, file: !359, line: 994, type: !430, flags: DIFlagPrototyped, spFlags: 0)
!430 = !DISubroutineType(types: !431)
!431 = !{!366, !222, !222}
!432 = !DIImportedEntity(tag: DW_TAG_imported_declaration, scope: !4, entity: !433, file: !364, line: 155)
!433 = !DISubprogram(name: "malloc", scope: !359, file: !359, line: 672, type: !434, flags: DIFlagPrototyped, spFlags: 0)
!434 = !DISubroutineType(types: !435)
!435 = !{!132, !79}
!436 = !DIImportedEntity(tag: DW_TAG_imported_declaration, scope: !4, entity: !437, file: !364, line: 157)
!437 = !DISubprogram(name: "mblen", scope: !359, file: !359, line: 1062, type: !438, flags: DIFlagPrototyped, spFlags: 0)
!438 = !DISubroutineType(types: !439)
!439 = !{!12, !83, !79}
!440 = !DIImportedEntity(tag: DW_TAG_imported_declaration, scope: !4, entity: !441, file: !364, line: 158)
!441 = !DISubprogram(name: "mbstowcs", scope: !359, file: !359, line: 1073, type: !442, flags: DIFlagPrototyped, spFlags: 0)
!442 = !DISubroutineType(types: !443)
!443 = !{!79, !46, !82, !79}
!444 = !DIImportedEntity(tag: DW_TAG_imported_declaration, scope: !4, entity: !445, file: !364, line: 159)
!445 = !DISubprogram(name: "mbtowc", scope: !359, file: !359, line: 1065, type: !446, flags: DIFlagPrototyped, spFlags: 0)
!446 = !DISubroutineType(types: !447)
!447 = !{!12, !46, !82, !79}
!448 = !DIImportedEntity(tag: DW_TAG_imported_declaration, scope: !4, entity: !449, file: !364, line: 161)
!449 = !DISubprogram(name: "qsort", scope: !359, file: !359, line: 970, type: !450, flags: DIFlagPrototyped, spFlags: 0)
!450 = !DISubroutineType(types: !451)
!451 = !{null, !132, !79, !79, !400}
!452 = !DIImportedEntity(tag: DW_TAG_imported_declaration, scope: !4, entity: !453, file: !364, line: 164)
!453 = !DISubprogram(name: "quick_exit", scope: !359, file: !359, line: 762, type: !414, flags: DIFlagPrototyped | DIFlagNoReturn, spFlags: 0)
!454 = !DIImportedEntity(tag: DW_TAG_imported_declaration, scope: !4, entity: !455, file: !364, line: 167)
!455 = !DISubprogram(name: "rand", scope: !359, file: !359, line: 573, type: !456, flags: DIFlagPrototyped, spFlags: 0)
!456 = !DISubroutineType(types: !457)
!457 = !{!12}
!458 = !DIImportedEntity(tag: DW_TAG_imported_declaration, scope: !4, entity: !459, file: !364, line: 168)
!459 = !DISubprogram(name: "realloc", scope: !359, file: !359, line: 683, type: !460, flags: DIFlagPrototyped, spFlags: 0)
!460 = !DISubroutineType(types: !461)
!461 = !{!132, !132, !79}
!462 = !DIImportedEntity(tag: DW_TAG_imported_declaration, scope: !4, entity: !463, file: !364, line: 169)
!463 = !DISubprogram(name: "srand", scope: !359, file: !359, line: 575, type: !464, flags: DIFlagPrototyped, spFlags: 0)
!464 = !DISubroutineType(types: !465)
!465 = !{null, !17}
!466 = !DIImportedEntity(tag: DW_TAG_imported_declaration, scope: !4, entity: !467, file: !364, line: 170)
!467 = !DISubprogram(name: "strtod", scope: !359, file: !359, line: 118, type: !468, flags: DIFlagPrototyped, spFlags: 0)
!468 = !DISubroutineType(types: !469)
!469 = !{!206, !82, !470}
!470 = !DIDerivedType(tag: DW_TAG_restrict_type, baseType: !471)
!471 = !DIDerivedType(tag: DW_TAG_pointer_type, baseType: !155, size: 64)
!472 = !DIImportedEntity(tag: DW_TAG_imported_declaration, scope: !4, entity: !473, file: !364, line: 171)
!473 = !DISubprogram(name: "strtol", linkageName: "__isoc23_strtol", scope: !359, file: !359, line: 215, type: !474, flags: DIFlagPrototyped, spFlags: 0)
!474 = !DISubroutineType(types: !475)
!475 = !{!222, !82, !470, !12}
!476 = !DIImportedEntity(tag: DW_TAG_imported_declaration, scope: !4, entity: !477, file: !364, line: 172)
!477 = !DISubprogram(name: "strtoul", linkageName: "__isoc23_strtoul", scope: !359, file: !359, line: 219, type: !478, flags: DIFlagPrototyped, spFlags: 0)
!478 = !DISubroutineType(types: !479)
!479 = !{!81, !82, !470, !12}
!480 = !DIImportedEntity(tag: DW_TAG_imported_declaration, scope: !4, entity: !481, file: !364, line: 173)
!481 = !DISubprogram(name: "system", scope: !359, file: !359, line: 923, type: !388, flags: DIFlagPrototyped, spFlags: 0)
!482 = !DIImportedEntity(tag: DW_TAG_imported_declaration, scope: !4, entity: !483, file: !364, line: 175)
!483 = !DISubprogram(name: "wcstombs", scope: !359, file: !359, line: 1077, type: !484, flags: DIFlagPrototyped, spFlags: 0)
!484 = !DISubroutineType(types: !485)
!485 = !{!79, !154, !56, !79}
!486 = !DIImportedEntity(tag: DW_TAG_imported_declaration, scope: !4, entity: !487, file: !364, line: 176)
!487 = !DISubprogram(name: "wctomb", scope: !359, file: !359, line: 1069, type: !488, flags: DIFlagPrototyped, spFlags: 0)
!488 = !DISubroutineType(types: !489)
!489 = !{!12, !155, !45}
!490 = !DIImportedEntity(tag: DW_TAG_imported_declaration, scope: !270, entity: !491, file: !364, line: 204)
!491 = !DIDerivedType(tag: DW_TAG_typedef, name: "lldiv_t", file: !359, line: 81, baseType: !492)
!492 = distinct !DICompositeType(tag: DW_TAG_structure_type, file: !359, line: 77, size: 128, flags: DIFlagTypePassByValue, elements: !493, identifier: "_ZTS7lldiv_t")
!493 = !{!494, !495}
!494 = !DIDerivedType(tag: DW_TAG_member, name: "quot", scope: !492, file: !359, line: 79, baseType: !279, size: 64)
!495 = !DIDerivedType(tag: DW_TAG_member, name: "rem", scope: !492, file: !359, line: 80, baseType: !279, size: 64, offset: 64)
!496 = !DIImportedEntity(tag: DW_TAG_imported_declaration, scope: !270, entity: !497, file: !364, line: 210)
!497 = !DISubprogram(name: "_Exit", scope: !359, file: !359, line: 768, type: !414, flags: DIFlagPrototyped | DIFlagNoReturn, spFlags: 0)
!498 = !DIImportedEntity(tag: DW_TAG_imported_declaration, scope: !270, entity: !499, file: !364, line: 214)
!499 = !DISubprogram(name: "llabs", scope: !359, file: !359, line: 984, type: !500, flags: DIFlagPrototyped, spFlags: 0)
!500 = !DISubroutineType(types: !501)
!501 = !{!279, !279}
!502 = !DIImportedEntity(tag: DW_TAG_imported_declaration, scope: !270, entity: !503, file: !364, line: 220)
!503 = !DISubprogram(name: "lldiv", scope: !359, file: !359, line: 998, type: !504, flags: DIFlagPrototyped, spFlags: 0)
!504 = !DISubroutineType(types: !505)
!505 = !{!491, !279, !279}
!506 = !DIImportedEntity(tag: DW_TAG_imported_declaration, scope: !270, entity: !507, file: !364, line: 231)
!507 = !DISubprogram(name: "atoll", scope: !359, file: !359, line: 113, type: !508, flags: DIFlagPrototyped, spFlags: 0)
!508 = !DISubroutineType(types: !509)
!509 = !{!279, !83}
!510 = !DIImportedEntity(tag: DW_TAG_imported_declaration, scope: !270, entity: !511, file: !364, line: 232)
!511 = !DISubprogram(name: "strtoll", linkageName: "__isoc23_strtoll", scope: !359, file: !359, line: 238, type: !512, flags: DIFlagPrototyped, spFlags: 0)
!512 = !DISubroutineType(types: !513)
!513 = !{!279, !82, !470, !12}
!514 = !DIImportedEntity(tag: DW_TAG_imported_declaration, scope: !270, entity: !515, file: !364, line: 233)
!515 = !DISubprogram(name: "strtoull", linkageName: "__isoc23_strtoull", scope: !359, file: !359, line: 243, type: !516, flags: DIFlagPrototyped, spFlags: 0)
!516 = !DISubroutineType(types: !517)
!517 = !{!284, !82, !470, !12}
!518 = !DIImportedEntity(tag: DW_TAG_imported_declaration, scope: !270, entity: !519, file: !364, line: 235)
!519 = !DISubprogram(name: "strtof", scope: !359, file: !359, line: 124, type: !520, flags: DIFlagPrototyped, spFlags: 0)
!520 = !DISubroutineType(types: !521)
!521 = !{!213, !82, !470}
!522 = !DIImportedEntity(tag: DW_TAG_imported_declaration, scope: !270, entity: !523, file: !364, line: 236)
!523 = !DISubprogram(name: "strtold", scope: !359, file: !359, line: 127, type: !524, flags: DIFlagPrototyped, spFlags: 0)
!524 = !DISubroutineType(types: !525)
!525 = !{!274, !82, !470}
!526 = !DIImportedEntity(tag: DW_TAG_imported_declaration, scope: !4, entity: !491, file: !364, line: 244)
!527 = !DIImportedEntity(tag: DW_TAG_imported_declaration, scope: !4, entity: !497, file: !364, line: 246)
!528 = !DIImportedEntity(tag: DW_TAG_imported_declaration, scope: !4, entity: !499, file: !364, line: 248)
!529 = !DIImportedEntity(tag: DW_TAG_imported_declaration, scope: !4, entity: !530, file: !364, line: 249)
!530 = !DISubprogram(name: "div", linkageName: "_ZN9__gnu_cxx3divExx", scope: !270, file: !364, line: 217, type: !504, flags: DIFlagPrototyped, spFlags: 0)
!531 = !DIImportedEntity(tag: DW_TAG_imported_declaration, scope: !4, entity: !503, file: !364, line: 250)
!532 = !DIImportedEntity(tag: DW_TAG_imported_declaration, scope: !4, entity: !507, file: !364, line: 252)
!533 = !DIImportedEntity(tag: DW_TAG_imported_declaration, scope: !4, entity: !519, file: !364, line: 253)
!534 = !DIImportedEntity(tag: DW_TAG_imported_declaration, scope: !4, entity: !511, file: !364, line: 254)
!535 = !DIImportedEntity(tag: DW_TAG_imported_declaration, scope: !4, entity: !515, file: !364, line: 255)
!536 = !DIImportedEntity(tag: DW_TAG_imported_declaration, scope: !4, entity: !523, file: !364, line: 256)
!537 = !DIImportedEntity(tag: DW_TAG_imported_declaration, scope: !4, entity: !538, file: !540, line: 98)
!538 = !DIDerivedType(tag: DW_TAG_typedef, name: "FILE", file: !539, line: 7, baseType: !39)
!539 = !DIFile(filename: "/usr/include/x86_64-linux-gnu/bits/types/FILE.h", directory: "", checksumkind: CSK_MD5, checksum: "571f9fb6223c42439075fdde11a0de5d")
!540 = !DIFile(filename: "/usr/bin/../lib/gcc/x86_64-linux-gnu/13/../../../../include/c++/13/cstdio", directory: "")
!541 = !DIImportedEntity(tag: DW_TAG_imported_declaration, scope: !4, entity: !542, file: !540, line: 99)
!542 = !DIDerivedType(tag: DW_TAG_typedef, name: "fpos_t", file: !543, line: 85, baseType: !544)
!543 = !DIFile(filename: "/usr/include/stdio.h", directory: "", checksumkind: CSK_MD5, checksum: "1e435c46987a169d9f9186f63a512303")
!544 = !DIDerivedType(tag: DW_TAG_typedef, name: "__fpos_t", file: !545, line: 14, baseType: !546)
!545 = !DIFile(filename: "/usr/include/x86_64-linux-gnu/bits/types/__fpos_t.h", directory: "", checksumkind: CSK_MD5, checksum: "32de8bdaf3551a6c0a9394f9af4389ce")
!546 = !DICompositeType(tag: DW_TAG_structure_type, name: "_G_fpos_t", file: !545, line: 10, size: 128, flags: DIFlagFwdDecl, identifier: "_ZTS9_G_fpos_t")
!547 = !DIImportedEntity(tag: DW_TAG_imported_declaration, scope: !4, entity: !548, file: !540, line: 101)
!548 = !DISubprogram(name: "clearerr", scope: !543, file: !543, line: 860, type: !549, flags: DIFlagPrototyped, spFlags: 0)
!549 = !DISubroutineType(types: !550)
!550 = !{null, !551}
!551 = !DIDerivedType(tag: DW_TAG_pointer_type, baseType: !538, size: 64)
!552 = !DIImportedEntity(tag: DW_TAG_imported_declaration, scope: !4, entity: !553, file: !540, line: 102)
!553 = !DISubprogram(name: "fclose", scope: !543, file: !543, line: 184, type: !554, flags: DIFlagPrototyped, spFlags: 0)
!554 = !DISubroutineType(types: !555)
!555 = !{!12, !551}
!556 = !DIImportedEntity(tag: DW_TAG_imported_declaration, scope: !4, entity: !557, file: !540, line: 103)
!557 = !DISubprogram(name: "feof", scope: !543, file: !543, line: 862, type: !554, flags: DIFlagPrototyped, spFlags: 0)
!558 = !DIImportedEntity(tag: DW_TAG_imported_declaration, scope: !4, entity: !559, file: !540, line: 104)
!559 = !DISubprogram(name: "ferror", scope: !543, file: !543, line: 864, type: !554, flags: DIFlagPrototyped, spFlags: 0)
!560 = !DIImportedEntity(tag: DW_TAG_imported_declaration, scope: !4, entity: !561, file: !540, line: 105)
!561 = !DISubprogram(name: "fflush", scope: !543, file: !543, line: 236, type: !554, flags: DIFlagPrototyped, spFlags: 0)
!562 = !DIImportedEntity(tag: DW_TAG_imported_declaration, scope: !4, entity: !563, file: !540, line: 106)
!563 = !DISubprogram(name: "fgetc", scope: !543, file: !543, line: 575, type: !554, flags: DIFlagPrototyped, spFlags: 0)
!564 = !DIImportedEntity(tag: DW_TAG_imported_declaration, scope: !4, entity: !565, file: !540, line: 107)
!565 = !DISubprogram(name: "fgetpos", scope: !543, file: !543, line: 829, type: !566, flags: DIFlagPrototyped, spFlags: 0)
!566 = !DISubroutineType(types: !567)
!567 = !{!12, !568, !569}
!568 = !DIDerivedType(tag: DW_TAG_restrict_type, baseType: !551)
!569 = !DIDerivedType(tag: DW_TAG_restrict_type, baseType: !570)
!570 = !DIDerivedType(tag: DW_TAG_pointer_type, baseType: !542, size: 64)
!571 = !DIImportedEntity(tag: DW_TAG_imported_declaration, scope: !4, entity: !572, file: !540, line: 108)
!572 = !DISubprogram(name: "fgets", scope: !543, file: !543, line: 654, type: !573, flags: DIFlagPrototyped, spFlags: 0)
!573 = !DISubroutineType(types: !574)
!574 = !{!155, !154, !12, !568}
!575 = !DIImportedEntity(tag: DW_TAG_imported_declaration, scope: !4, entity: !576, file: !540, line: 109)
!576 = !DISubprogram(name: "fopen", scope: !543, file: !543, line: 264, type: !577, flags: DIFlagPrototyped, spFlags: 0)
!577 = !DISubroutineType(types: !578)
!578 = !{!551, !82, !82}
!579 = !DIImportedEntity(tag: DW_TAG_imported_declaration, scope: !4, entity: !580, file: !540, line: 110)
!580 = !DISubprogram(name: "fprintf", scope: !543, file: !543, line: 357, type: !581, flags: DIFlagPrototyped, spFlags: 0)
!581 = !DISubroutineType(types: !582)
!582 = !{!12, !568, !82, null}
!583 = !DIImportedEntity(tag: DW_TAG_imported_declaration, scope: !4, entity: !584, file: !540, line: 111)
!584 = !DISubprogram(name: "fputc", scope: !543, file: !543, line: 611, type: !585, flags: DIFlagPrototyped, spFlags: 0)
!585 = !DISubroutineType(types: !586)
!586 = !{!12, !12, !551}
!587 = !DIImportedEntity(tag: DW_TAG_imported_declaration, scope: !4, entity: !588, file: !540, line: 112)
!588 = !DISubprogram(name: "fputs", scope: !543, file: !543, line: 717, type: !589, flags: DIFlagPrototyped, spFlags: 0)
!589 = !DISubroutineType(types: !590)
!590 = !{!12, !82, !568}
!591 = !DIImportedEntity(tag: DW_TAG_imported_declaration, scope: !4, entity: !592, file: !540, line: 113)
!592 = !DISubprogram(name: "fread", scope: !543, file: !543, line: 738, type: !593, flags: DIFlagPrototyped, spFlags: 0)
!593 = !DISubroutineType(types: !594)
!594 = !{!79, !595, !79, !79, !568}
!595 = !DIDerivedType(tag: DW_TAG_restrict_type, baseType: !132)
!596 = !DIImportedEntity(tag: DW_TAG_imported_declaration, scope: !4, entity: !597, file: !540, line: 114)
!597 = !DISubprogram(name: "freopen", scope: !543, file: !543, line: 271, type: !598, flags: DIFlagPrototyped, spFlags: 0)
!598 = !DISubroutineType(types: !599)
!599 = !{!551, !82, !82, !568}
!600 = !DIImportedEntity(tag: DW_TAG_imported_declaration, scope: !4, entity: !601, file: !540, line: 115)
!601 = !DISubprogram(name: "fscanf", linkageName: "__isoc23_fscanf", scope: !543, file: !543, line: 442, type: !581, flags: DIFlagPrototyped, spFlags: 0)
!602 = !DIImportedEntity(tag: DW_TAG_imported_declaration, scope: !4, entity: !603, file: !540, line: 116)
!603 = !DISubprogram(name: "fseek", scope: !543, file: !543, line: 779, type: !604, flags: DIFlagPrototyped, spFlags: 0)
!604 = !DISubroutineType(types: !605)
!605 = !{!12, !551, !222, !12}
!606 = !DIImportedEntity(tag: DW_TAG_imported_declaration, scope: !4, entity: !607, file: !540, line: 117)
!607 = !DISubprogram(name: "fsetpos", scope: !543, file: !543, line: 835, type: !608, flags: DIFlagPrototyped, spFlags: 0)
!608 = !DISubroutineType(types: !609)
!609 = !{!12, !551, !610}
!610 = !DIDerivedType(tag: DW_TAG_pointer_type, baseType: !611, size: 64)
!611 = !DIDerivedType(tag: DW_TAG_const_type, baseType: !542)
!612 = !DIImportedEntity(tag: DW_TAG_imported_declaration, scope: !4, entity: !613, file: !540, line: 118)
!613 = !DISubprogram(name: "ftell", scope: !543, file: !543, line: 785, type: !614, flags: DIFlagPrototyped, spFlags: 0)
!614 = !DISubroutineType(types: !615)
!615 = !{!222, !551}
!616 = !DIImportedEntity(tag: DW_TAG_imported_declaration, scope: !4, entity: !617, file: !540, line: 119)
!617 = !DISubprogram(name: "fwrite", scope: !543, file: !543, line: 745, type: !618, flags: DIFlagPrototyped, spFlags: 0)
!618 = !DISubroutineType(types: !619)
!619 = !{!79, !620, !79, !79, !568}
!620 = !DIDerivedType(tag: DW_TAG_restrict_type, baseType: !398)
!621 = !DIImportedEntity(tag: DW_TAG_imported_declaration, scope: !4, entity: !622, file: !540, line: 120)
!622 = !DISubprogram(name: "getc", scope: !543, file: !543, line: 576, type: !554, flags: DIFlagPrototyped, spFlags: 0)
!623 = !DIImportedEntity(tag: DW_TAG_imported_declaration, scope: !4, entity: !624, file: !540, line: 121)
!624 = !DISubprogram(name: "getchar", scope: !543, file: !543, line: 582, type: !456, flags: DIFlagPrototyped, spFlags: 0)
!625 = !DIImportedEntity(tag: DW_TAG_imported_declaration, scope: !4, entity: !626, file: !540, line: 126)
!626 = !DISubprogram(name: "perror", scope: !543, file: !543, line: 878, type: !627, flags: DIFlagPrototyped, spFlags: 0)
!627 = !DISubroutineType(types: !628)
!628 = !{null, !83}
!629 = !DIImportedEntity(tag: DW_TAG_imported_declaration, scope: !4, entity: !630, file: !540, line: 127)
!630 = !DISubprogram(name: "printf", scope: !543, file: !543, line: 363, type: !631, flags: DIFlagPrototyped, spFlags: 0)
!631 = !DISubroutineType(types: !632)
!632 = !{!12, !82, null}
!633 = !DIImportedEntity(tag: DW_TAG_imported_declaration, scope: !4, entity: !634, file: !540, line: 128)
!634 = !DISubprogram(name: "putc", scope: !543, file: !543, line: 612, type: !585, flags: DIFlagPrototyped, spFlags: 0)
!635 = !DIImportedEntity(tag: DW_TAG_imported_declaration, scope: !4, entity: !636, file: !540, line: 129)
!636 = !DISubprogram(name: "putchar", scope: !543, file: !543, line: 618, type: !324, flags: DIFlagPrototyped, spFlags: 0)
!637 = !DIImportedEntity(tag: DW_TAG_imported_declaration, scope: !4, entity: !638, file: !540, line: 130)
!638 = !DISubprogram(name: "puts", scope: !543, file: !543, line: 724, type: !388, flags: DIFlagPrototyped, spFlags: 0)
!639 = !DIImportedEntity(tag: DW_TAG_imported_declaration, scope: !4, entity: !640, file: !540, line: 131)
!640 = !DISubprogram(name: "remove", scope: !543, file: !543, line: 158, type: !388, flags: DIFlagPrototyped, spFlags: 0)
!641 = !DIImportedEntity(tag: DW_TAG_imported_declaration, scope: !4, entity: !642, file: !540, line: 132)
!642 = !DISubprogram(name: "rename", scope: !543, file: !543, line: 160, type: !643, flags: DIFlagPrototyped, spFlags: 0)
!643 = !DISubroutineType(types: !644)
!644 = !{!12, !83, !83}
!645 = !DIImportedEntity(tag: DW_TAG_imported_declaration, scope: !4, entity: !646, file: !540, line: 133)
!646 = !DISubprogram(name: "rewind", scope: !543, file: !543, line: 790, type: !549, flags: DIFlagPrototyped, spFlags: 0)
!647 = !DIImportedEntity(tag: DW_TAG_imported_declaration, scope: !4, entity: !648, file: !540, line: 134)
!648 = !DISubprogram(name: "scanf", linkageName: "__isoc23_scanf", scope: !543, file: !543, line: 445, type: !631, flags: DIFlagPrototyped, spFlags: 0)
!649 = !DIImportedEntity(tag: DW_TAG_imported_declaration, scope: !4, entity: !650, file: !540, line: 135)
!650 = !DISubprogram(name: "setbuf", scope: !543, file: !543, line: 334, type: !651, flags: DIFlagPrototyped, spFlags: 0)
!651 = !DISubroutineType(types: !652)
!652 = !{null, !568, !154}
!653 = !DIImportedEntity(tag: DW_TAG_imported_declaration, scope: !4, entity: !654, file: !540, line: 136)
!654 = !DISubprogram(name: "setvbuf", scope: !543, file: !543, line: 339, type: !655, flags: DIFlagPrototyped, spFlags: 0)
!655 = !DISubroutineType(types: !656)
!656 = !{!12, !568, !154, !12, !79}
!657 = !DIImportedEntity(tag: DW_TAG_imported_declaration, scope: !4, entity: !658, file: !540, line: 137)
!658 = !DISubprogram(name: "sprintf", scope: !543, file: !543, line: 365, type: !659, flags: DIFlagPrototyped, spFlags: 0)
!659 = !DISubroutineType(types: !660)
!660 = !{!12, !154, !82, null}
!661 = !DIImportedEntity(tag: DW_TAG_imported_declaration, scope: !4, entity: !662, file: !540, line: 138)
!662 = !DISubprogram(name: "sscanf", linkageName: "__isoc23_sscanf", scope: !543, file: !543, line: 447, type: !663, flags: DIFlagPrototyped, spFlags: 0)
!663 = !DISubroutineType(types: !664)
!664 = !{!12, !82, !82, null}
!665 = !DIImportedEntity(tag: DW_TAG_imported_declaration, scope: !4, entity: !666, file: !540, line: 139)
!666 = !DISubprogram(name: "tmpfile", scope: !543, file: !543, line: 194, type: !667, flags: DIFlagPrototyped, spFlags: 0)
!667 = !DISubroutineType(types: !668)
!668 = !{!551}
!669 = !DIImportedEntity(tag: DW_TAG_imported_declaration, scope: !4, entity: !670, file: !540, line: 141)
!670 = !DISubprogram(name: "tmpnam", scope: !543, file: !543, line: 211, type: !671, flags: DIFlagPrototyped, spFlags: 0)
!671 = !DISubroutineType(types: !672)
!672 = !{!155, !155}
!673 = !DIImportedEntity(tag: DW_TAG_imported_declaration, scope: !4, entity: !674, file: !540, line: 143)
!674 = !DISubprogram(name: "ungetc", scope: !543, file: !543, line: 731, type: !585, flags: DIFlagPrototyped, spFlags: 0)
!675 = !DIImportedEntity(tag: DW_TAG_imported_declaration, scope: !4, entity: !676, file: !540, line: 144)
!676 = !DISubprogram(name: "vfprintf", scope: !543, file: !543, line: 372, type: !677, flags: DIFlagPrototyped, spFlags: 0)
!677 = !DISubroutineType(types: !678)
!678 = !{!12, !568, !82, !125}
!679 = !DIImportedEntity(tag: DW_TAG_imported_declaration, scope: !4, entity: !680, file: !540, line: 145)
!680 = !DISubprogram(name: "vprintf", scope: !543, file: !543, line: 378, type: !681, flags: DIFlagPrototyped, spFlags: 0)
!681 = !DISubroutineType(types: !682)
!682 = !{!12, !82, !125}
!683 = !DIImportedEntity(tag: DW_TAG_imported_declaration, scope: !4, entity: !684, file: !540, line: 146)
!684 = !DISubprogram(name: "vsprintf", scope: !543, file: !543, line: 380, type: !685, flags: DIFlagPrototyped, spFlags: 0)
!685 = !DISubroutineType(types: !686)
!686 = !{!12, !154, !82, !125}
!687 = !DIImportedEntity(tag: DW_TAG_imported_declaration, scope: !270, entity: !688, file: !540, line: 175)
!688 = !DISubprogram(name: "snprintf", scope: !543, file: !543, line: 385, type: !689, flags: DIFlagPrototyped, spFlags: 0)
!689 = !DISubroutineType(types: !690)
!690 = !{!12, !154, !79, !82, null}
!691 = !DIImportedEntity(tag: DW_TAG_imported_declaration, scope: !270, entity: !692, file: !540, line: 176)
!692 = !DISubprogram(name: "vfscanf", linkageName: "__isoc23_vfscanf", scope: !543, file: !543, line: 511, type: !677, flags: DIFlagPrototyped, spFlags: 0)
!693 = !DIImportedEntity(tag: DW_TAG_imported_declaration, scope: !270, entity: !694, file: !540, line: 177)
!694 = !DISubprogram(name: "vscanf", linkageName: "__isoc23_vscanf", scope: !543, file: !543, line: 516, type: !681, flags: DIFlagPrototyped, spFlags: 0)
!695 = !DIImportedEntity(tag: DW_TAG_imported_declaration, scope: !270, entity: !696, file: !540, line: 178)
!696 = !DISubprogram(name: "vsnprintf", scope: !543, file: !543, line: 389, type: !697, flags: DIFlagPrototyped, spFlags: 0)
!697 = !DISubroutineType(types: !698)
!698 = !{!12, !154, !79, !82, !125}
!699 = !DIImportedEntity(tag: DW_TAG_imported_declaration, scope: !270, entity: !700, file: !540, line: 179)
!700 = !DISubprogram(name: "vsscanf", linkageName: "__isoc23_vsscanf", scope: !543, file: !543, line: 519, type: !701, flags: DIFlagPrototyped, spFlags: 0)
!701 = !DISubroutineType(types: !702)
!702 = !{!12, !82, !82, !125}
!703 = !DIImportedEntity(tag: DW_TAG_imported_declaration, scope: !4, entity: !688, file: !540, line: 185)
!704 = !DIImportedEntity(tag: DW_TAG_imported_declaration, scope: !4, entity: !692, file: !540, line: 186)
!705 = !DIImportedEntity(tag: DW_TAG_imported_declaration, scope: !4, entity: !694, file: !540, line: 187)
!706 = !DIImportedEntity(tag: DW_TAG_imported_declaration, scope: !4, entity: !696, file: !540, line: 188)
!707 = !DIImportedEntity(tag: DW_TAG_imported_declaration, scope: !4, entity: !700, file: !540, line: 189)
!708 = !DIImportedEntity(tag: DW_TAG_imported_declaration, scope: !4, entity: !709, file: !715, line: 82)
!709 = !DIDerivedType(tag: DW_TAG_typedef, name: "wctrans_t", file: !710, line: 48, baseType: !711)
!710 = !DIFile(filename: "/usr/include/wctype.h", directory: "", checksumkind: CSK_MD5, checksum: "eff95da6508e8f67a3c7b77d9d8ab229")
!711 = !DIDerivedType(tag: DW_TAG_pointer_type, baseType: !712, size: 64)
!712 = !DIDerivedType(tag: DW_TAG_const_type, baseType: !713)
!713 = !DIDerivedType(tag: DW_TAG_typedef, name: "__int32_t", file: !714, line: 41, baseType: !12)
!714 = !DIFile(filename: "/usr/include/x86_64-linux-gnu/bits/types.h", directory: "", checksumkind: CSK_MD5, checksum: "e1865d9fe29fe1b5ced550b7ba458f9e")
!715 = !DIFile(filename: "/usr/bin/../lib/gcc/x86_64-linux-gnu/13/../../../../include/c++/13/cwctype", directory: "")
!716 = !DIImportedEntity(tag: DW_TAG_imported_declaration, scope: !4, entity: !717, file: !715, line: 83)
!717 = !DIDerivedType(tag: DW_TAG_typedef, name: "wctype_t", file: !718, line: 38, baseType: !81)
!718 = !DIFile(filename: "/usr/include/x86_64-linux-gnu/bits/wctype-wchar.h", directory: "", checksumkind: CSK_MD5, checksum: "7f19501745f9a1fbbace8f0f185de59a")
!719 = !DIImportedEntity(tag: DW_TAG_imported_declaration, scope: !4, entity: !25, file: !715, line: 84)
!720 = !DIImportedEntity(tag: DW_TAG_imported_declaration, scope: !4, entity: !721, file: !715, line: 86)
!721 = !DISubprogram(name: "iswalnum", scope: !718, file: !718, line: 95, type: !233, flags: DIFlagPrototyped, spFlags: 0)
!722 = !DIImportedEntity(tag: DW_TAG_imported_declaration, scope: !4, entity: !723, file: !715, line: 87)
!723 = !DISubprogram(name: "iswalpha", scope: !718, file: !718, line: 101, type: !233, flags: DIFlagPrototyped, spFlags: 0)
!724 = !DIImportedEntity(tag: DW_TAG_imported_declaration, scope: !4, entity: !725, file: !715, line: 89)
!725 = !DISubprogram(name: "iswblank", scope: !718, file: !718, line: 146, type: !233, flags: DIFlagPrototyped, spFlags: 0)
!726 = !DIImportedEntity(tag: DW_TAG_imported_declaration, scope: !4, entity: !727, file: !715, line: 91)
!727 = !DISubprogram(name: "iswcntrl", scope: !718, file: !718, line: 104, type: !233, flags: DIFlagPrototyped, spFlags: 0)
!728 = !DIImportedEntity(tag: DW_TAG_imported_declaration, scope: !4, entity: !729, file: !715, line: 92)
!729 = !DISubprogram(name: "iswctype", scope: !718, file: !718, line: 159, type: !730, flags: DIFlagPrototyped, spFlags: 0)
!730 = !DISubroutineType(types: !731)
!731 = !{!12, !25, !717}
!732 = !DIImportedEntity(tag: DW_TAG_imported_declaration, scope: !4, entity: !733, file: !715, line: 93)
!733 = !DISubprogram(name: "iswdigit", scope: !718, file: !718, line: 108, type: !233, flags: DIFlagPrototyped, spFlags: 0)
!734 = !DIImportedEntity(tag: DW_TAG_imported_declaration, scope: !4, entity: !735, file: !715, line: 94)
!735 = !DISubprogram(name: "iswgraph", scope: !718, file: !718, line: 112, type: !233, flags: DIFlagPrototyped, spFlags: 0)
!736 = !DIImportedEntity(tag: DW_TAG_imported_declaration, scope: !4, entity: !737, file: !715, line: 95)
!737 = !DISubprogram(name: "iswlower", scope: !718, file: !718, line: 117, type: !233, flags: DIFlagPrototyped, spFlags: 0)
!738 = !DIImportedEntity(tag: DW_TAG_imported_declaration, scope: !4, entity: !739, file: !715, line: 96)
!739 = !DISubprogram(name: "iswprint", scope: !718, file: !718, line: 120, type: !233, flags: DIFlagPrototyped, spFlags: 0)
!740 = !DIImportedEntity(tag: DW_TAG_imported_declaration, scope: !4, entity: !741, file: !715, line: 97)
!741 = !DISubprogram(name: "iswpunct", scope: !718, file: !718, line: 125, type: !233, flags: DIFlagPrototyped, spFlags: 0)
!742 = !DIImportedEntity(tag: DW_TAG_imported_declaration, scope: !4, entity: !743, file: !715, line: 98)
!743 = !DISubprogram(name: "iswspace", scope: !718, file: !718, line: 130, type: !233, flags: DIFlagPrototyped, spFlags: 0)
!744 = !DIImportedEntity(tag: DW_TAG_imported_declaration, scope: !4, entity: !745, file: !715, line: 99)
!745 = !DISubprogram(name: "iswupper", scope: !718, file: !718, line: 135, type: !233, flags: DIFlagPrototyped, spFlags: 0)
!746 = !DIImportedEntity(tag: DW_TAG_imported_declaration, scope: !4, entity: !747, file: !715, line: 100)
!747 = !DISubprogram(name: "iswxdigit", scope: !718, file: !718, line: 140, type: !233, flags: DIFlagPrototyped, spFlags: 0)
!748 = !DIImportedEntity(tag: DW_TAG_imported_declaration, scope: !4, entity: !749, file: !715, line: 101)
!749 = !DISubprogram(name: "towctrans", scope: !710, file: !710, line: 55, type: !750, flags: DIFlagPrototyped, spFlags: 0)
!750 = !DISubroutineType(types: !751)
!751 = !{!25, !25, !709}
!752 = !DIImportedEntity(tag: DW_TAG_imported_declaration, scope: !4, entity: !753, file: !715, line: 102)
!753 = !DISubprogram(name: "towlower", scope: !718, file: !718, line: 166, type: !754, flags: DIFlagPrototyped, spFlags: 0)
!754 = !DISubroutineType(types: !755)
!755 = !{!25, !25}
!756 = !DIImportedEntity(tag: DW_TAG_imported_declaration, scope: !4, entity: !757, file: !715, line: 103)
!757 = !DISubprogram(name: "towupper", scope: !718, file: !718, line: 169, type: !754, flags: DIFlagPrototyped, spFlags: 0)
!758 = !DIImportedEntity(tag: DW_TAG_imported_declaration, scope: !4, entity: !759, file: !715, line: 104)
!759 = !DISubprogram(name: "wctrans", scope: !710, file: !710, line: 52, type: !760, flags: DIFlagPrototyped, spFlags: 0)
!760 = !DISubroutineType(types: !761)
!761 = !{!709, !83}
!762 = !DIImportedEntity(tag: DW_TAG_imported_declaration, scope: !4, entity: !763, file: !715, line: 105)
!763 = !DISubprogram(name: "wctype", scope: !718, file: !718, line: 155, type: !764, flags: DIFlagPrototyped, spFlags: 0)
!764 = !DISubroutineType(types: !765)
!765 = !{!717, !83}
!766 = !DIImportedEntity(tag: DW_TAG_imported_module, scope: !0, entity: !4, file: !1, line: 2)
!767 = !{i32 7, !"Dwarf Version", i32 5}
!768 = !{i32 2, !"Debug Info Version", i32 3}
!769 = !{i32 1, !"wchar_size", i32 4}
!770 = !{i32 7, !"PIC Level", i32 2}
!771 = !{i32 7, !"PIE Level", i32 2}
!772 = !{i32 7, !"uwtable", i32 1}
!773 = !{i32 7, !"frame-pointer", i32 2}
!774 = !{!"Ubuntu clang version 14.0.6"}
!775 = distinct !DISubprogram(name: "M", linkageName: "_Z1Mv", scope: !1, file: !1, line: 10, type: !373, scopeLine: 10, flags: DIFlagPrototyped, spFlags: DISPFlagDefinition, unit: !0, retainedNodes: !776)
!776 = !{}
!777 = !DILocation(line: 11, column: 7, scope: !775)
!778 = !DILocation(line: 11, column: 30, scope: !775)
!779 = !DILocation(line: 12, column: 7, scope: !775)
!780 = !DILocation(line: 12, column: 14, scope: !775)
!781 = !DILocation(line: 13, column: 1, scope: !775)
!782 = distinct !DISubprogram(name: "N", linkageName: "_Z1Nv", scope: !1, file: !1, line: 15, type: !373, scopeLine: 15, flags: DIFlagPrototyped, spFlags: DISPFlagDefinition, unit: !0, retainedNodes: !776)
!783 = !DILocation(line: 16, column: 7, scope: !782)
!784 = !DILocation(line: 16, column: 30, scope: !782)
!785 = !DILocation(line: 17, column: 7, scope: !782)
!786 = !DILocation(line: 17, column: 14, scope: !782)
!787 = !DILocation(line: 18, column: 1, scope: !782)
!788 = distinct !DISubprogram(name: "D", linkageName: "_Z1Dv", scope: !1, file: !1, line: 20, type: !373, scopeLine: 20, flags: DIFlagPrototyped, spFlags: DISPFlagDefinition, unit: !0, retainedNodes: !776)
!789 = !DILocation(line: 21, column: 7, scope: !788)
!790 = !DILocation(line: 21, column: 30, scope: !788)
!791 = !DILocation(line: 22, column: 7, scope: !788)
!792 = !DILocation(line: 22, column: 14, scope: !788)
!793 = !DILocation(line: 23, column: 2, scope: !788)
!794 = !DILocation(line: 24, column: 1, scope: !788)
!795 = distinct !DISubprogram(name: "E", linkageName: "_Z1Ev", scope: !1, file: !1, line: 26, type: !373, scopeLine: 26, flags: DIFlagPrototyped, spFlags: DISPFlagDefinition, unit: !0, retainedNodes: !776)
!796 = !DILocation(line: 27, column: 7, scope: !795)
!797 = !DILocation(line: 27, column: 30, scope: !795)
!798 = !DILocation(line: 28, column: 7, scope: !795)
!799 = !DILocation(line: 28, column: 14, scope: !795)
!800 = !DILocation(line: 29, column: 2, scope: !795)
!801 = !DILocation(line: 30, column: 1, scope: !795)
!802 = distinct !DISubprogram(name: "B", linkageName: "_Z1Bv", scope: !1, file: !1, line: 32, type: !373, scopeLine: 32, flags: DIFlagPrototyped, spFlags: DISPFlagDefinition, unit: !0, retainedNodes: !776)
!803 = !DILocation(line: 33, column: 7, scope: !802)
!804 = !DILocation(line: 33, column: 30, scope: !802)
!805 = !DILocation(line: 34, column: 7, scope: !802)
!806 = !DILocation(line: 34, column: 14, scope: !802)
!807 = !DILocation(line: 35, column: 2, scope: !802)
!808 = !DILocation(line: 36, column: 1, scope: !802)
!809 = distinct !DISubprogram(name: "C", linkageName: "_Z1Cv", scope: !1, file: !1, line: 39, type: !373, scopeLine: 39, flags: DIFlagPrototyped, spFlags: DISPFlagDefinition, unit: !0, retainedNodes: !776)
!810 = !DILocation(line: 40, column: 7, scope: !809)
!811 = !DILocation(line: 40, column: 30, scope: !809)
!812 = !DILocation(line: 41, column: 7, scope: !809)
!813 = !DILocation(line: 41, column: 14, scope: !809)
!814 = !DILocation(line: 42, column: 2, scope: !809)
!815 = !DILocation(line: 43, column: 1, scope: !809)
!816 = distinct !DISubprogram(name: "A", linkageName: "_Z1Av", scope: !1, file: !1, line: 45, type: !373, scopeLine: 45, flags: DIFlagPrototyped, spFlags: DISPFlagDefinition, unit: !0, retainedNodes: !776)
!817 = !DILocation(line: 46, column: 7, scope: !816)
!818 = !DILocation(line: 46, column: 30, scope: !816)
!819 = !DILocation(line: 47, column: 7, scope: !816)
!820 = !DILocation(line: 47, column: 14, scope: !816)
!821 = !DILocation(line: 48, column: 2, scope: !816)
!822 = !DILocation(line: 49, column: 2, scope: !816)
!823 = !DILocation(line: 50, column: 1, scope: !816)
!824 = distinct !DISubprogram(name: "F", linkageName: "_Z1Fv", scope: !1, file: !1, line: 54, type: !373, scopeLine: 54, flags: DIFlagPrototyped, spFlags: DISPFlagDefinition, unit: !0, retainedNodes: !776)
!825 = !DILocation(line: 55, column: 7, scope: !824)
!826 = !DILocation(line: 55, column: 30, scope: !824)
!827 = !DILocation(line: 56, column: 7, scope: !824)
!828 = !DILocation(line: 56, column: 14, scope: !824)
!829 = !DILocation(line: 57, column: 2, scope: !824)
!830 = !DILocation(line: 58, column: 1, scope: !824)
!831 = distinct !DISubprogram(name: "G", linkageName: "_Z1Gv", scope: !1, file: !1, line: 60, type: !373, scopeLine: 60, flags: DIFlagPrototyped, spFlags: DISPFlagDefinition, unit: !0, retainedNodes: !776)
!832 = !DILocation(line: 61, column: 7, scope: !831)
!833 = !DILocation(line: 61, column: 30, scope: !831)
!834 = !DILocation(line: 62, column: 7, scope: !831)
!835 = !DILocation(line: 62, column: 14, scope: !831)
!836 = !DILocation(line: 63, column: 2, scope: !831)
!837 = !DILocation(line: 64, column: 1, scope: !831)
!838 = distinct !DISubprogram(name: "H", linkageName: "_Z1Hv", scope: !1, file: !1, line: 66, type: !373, scopeLine: 66, flags: DIFlagPrototyped, spFlags: DISPFlagDefinition, unit: !0, retainedNodes: !776)
!839 = !DILocation(line: 67, column: 7, scope: !838)
!840 = !DILocation(line: 67, column: 30, scope: !838)
!841 = !DILocation(line: 68, column: 7, scope: !838)
!842 = !DILocation(line: 68, column: 14, scope: !838)
!843 = !DILocation(line: 69, column: 2, scope: !838)
!844 = !DILocation(line: 70, column: 1, scope: !838)
!845 = distinct !DISubprogram(name: "K", linkageName: "_Z1Kv", scope: !1, file: !1, line: 72, type: !373, scopeLine: 72, flags: DIFlagPrototyped, spFlags: DISPFlagDefinition, unit: !0, retainedNodes: !776)
!846 = !DILocation(line: 73, column: 7, scope: !845)
!847 = !DILocation(line: 73, column: 30, scope: !845)
!848 = !DILocation(line: 74, column: 7, scope: !845)
!849 = !DILocation(line: 74, column: 14, scope: !845)
!850 = !DILocation(line: 75, column: 2, scope: !845)
!851 = !DILocation(line: 76, column: 1, scope: !845)
!852 = distinct !DISubprogram(name: "Q", linkageName: "_Z1Qv", scope: !1, file: !1, line: 78, type: !373, scopeLine: 78, flags: DIFlagPrototyped, spFlags: DISPFlagDefinition, unit: !0, retainedNodes: !776)
!853 = !DILocation(line: 79, column: 7, scope: !852)
!854 = !DILocation(line: 79, column: 30, scope: !852)
!855 = !DILocation(line: 80, column: 7, scope: !852)
!856 = !DILocation(line: 80, column: 14, scope: !852)
!857 = !DILocation(line: 81, column: 2, scope: !852)
!858 = !DILocation(line: 82, column: 1, scope: !852)
!859 = distinct !DISubprogram(name: "T", linkageName: "_Z1Tv", scope: !1, file: !1, line: 84, type: !373, scopeLine: 84, flags: DIFlagPrototyped, spFlags: DISPFlagDefinition, unit: !0, retainedNodes: !776)
!860 = !DILocation(line: 85, column: 7, scope: !859)
!861 = !DILocation(line: 85, column: 30, scope: !859)
!862 = !DILocation(line: 86, column: 7, scope: !859)
!863 = !DILocation(line: 86, column: 14, scope: !859)
!864 = !DILocation(line: 87, column: 2, scope: !859)
!865 = !DILocation(line: 88, column: 1, scope: !859)
!866 = distinct !DISubprogram(name: "main", scope: !1, file: !1, line: 90, type: !456, scopeLine: 90, flags: DIFlagPrototyped, spFlags: DISPFlagDefinition, unit: !0, retainedNodes: !776)
!867 = !DILocation(line: 91, column: 2, scope: !866)
!868 = !DILocation(line: 92, column: 2, scope: !866)
!869 = !DILocation(line: 93, column: 2, scope: !866)
!870 = !DILocation(line: 94, column: 2, scope: !866)
!871 = !DILocation(line: 95, column: 2, scope: !866)
!872 = !DILocation(line: 96, column: 2, scope: !866)
!873 = !DILocation(line: 97, column: 2, scope: !866)
!874 = !DILocation(line: 98, column: 2, scope: !866)
!875 = !DILocation(line: 99, column: 2, scope: !866)
!876 = !DILocation(line: 100, column: 2, scope: !866)
!877 = !DILocation(line: 101, column: 2, scope: !866)
!878 = !DILocation(line: 102, column: 2, scope: !866)
!879 = !DILocation(line: 103, column: 2, scope: !866)
!880 = !DILocation(line: 105, column: 1, scope: !866)
